<?xml version="1.0" encoding="utf-8"?>
<?xml-stylesheet type="text/xsl" href="pdml2html.xsl"?>
<!-- You can find pdml2html.xsl in C:\Program Files\Wireshark or at https://gitlab.com/wireshark/wireshark/-/tree/master/resources/share/doc/wireshark/pdml2html.xsl. -->
<pdml version="0" creator="wireshark/4.2.4" time="Thu Nov 28 22:06:07 2024" capture_file="C:\Users\XAVIER~1.FIS\AppData\Local\Temp\wireshark_NPF_LoopbackJ66SX2.pcapng">
<packet>
  <proto name="geninfo" pos="0" showname="General information" size="145">
    <field name="num" pos="0" show="109" showname="Number" value="6d" size="145"/>
    <field name="len" pos="0" show="145" showname="Frame Length" value="91" size="145"/>
    <field name="caplen" pos="0" show="145" showname="Captured Length" value="91" size="145"/>
    <field name="timestamp" pos="0" show="Nov 28, 2024 21:40:23.262408000 Romance Standard Time" showname="Captured Time" value="1732826423.262408000" size="145"/>
  </proto>
  <proto name="frame" showname="Frame 109: 145 bytes on wire (1160 bits), 145 bytes captured (1160 bits) on interface \Device\NPF_Loopback, id 0" size="145" pos="0">
    <field name="frame.section_number" showname="Section number: 1" size="0" pos="0" show="1"/>
    <field name="frame.interface_id" showname="Interface id: 0 (\Device\NPF_Loopback)" size="0" pos="0" show="0">
      <field name="frame.interface_name" showname="Interface name: \Device\NPF_Loopback" size="0" pos="0" show="\Device\NPF_Loopback"/>
    </field>
    <field name="frame.encap_type" showname="Encapsulation type: NULL/Loopback (15)" size="0" pos="0" show="15"/>
    <field name="frame.time" showname="Arrival Time: Nov 28, 2024 21:40:23.262408000 Romance Standard Time" size="0" pos="0" show="Nov 28, 2024 21:40:23.262408000 Romance Standard Time"/>
    <field name="frame.time_utc" showname="UTC Arrival Time: Nov 28, 2024 20:40:23.262408000 UTC" size="0" pos="0" show="Nov 28, 2024 20:40:23.262408000 UTC"/>
    <field name="frame.time_epoch" showname="Epoch Arrival Time: 1732826423.262408000" size="0" pos="0" show="1732826423.262408000"/>
    <field name="frame.offset_shift" showname="Time shift for this packet: 0.000000000 seconds" size="0" pos="0" show="0.000000000"/>
    <field name="frame.time_delta" showname="Time delta from previous captured frame: 0.318110000 seconds" size="0" pos="0" show="0.318110000"/>
    <field name="frame.time_delta_displayed" showname="Time delta from previous displayed frame: 0.000000000 seconds" size="0" pos="0" show="0.000000000"/>
    <field name="frame.time_relative" showname="Time since reference or first frame: 1.373339000 seconds" size="0" pos="0" show="1.373339000"/>
    <field name="frame.number" showname="Frame Number: 109" size="0" pos="0" show="109"/>
    <field name="frame.len" showname="Frame Length: 145 bytes (1160 bits)" size="0" pos="0" show="145"/>
    <field name="frame.cap_len" showname="Capture Length: 145 bytes (1160 bits)" size="0" pos="0" show="145"/>
    <field name="frame.marked" showname="Frame is marked: False" size="0" pos="0" show="False"/>
    <field name="frame.ignored" showname="Frame is ignored: False" size="0" pos="0" show="False"/>
    <field name="frame.protocols" showname="Protocols in frame: null:ipv6:tcp:pgsqledb" size="0" pos="0" show="null:ipv6:tcp:pgsqledb"/>
    <field name="frame.coloring_rule.name" showname="Coloring Rule Name: TCP" size="0" pos="0" show="TCP"/>
    <field name="frame.coloring_rule.string" showname="Coloring Rule String: tcp" size="0" pos="0" show="tcp"/>
  </proto>
  <proto name="null" showname="Null/Loopback" size="4" pos="0">
    <field name="null.family" showname="Family: IPv6 (24)" size="4" pos="0" show="24" value="18000000"/>
  </proto>
  <proto name="ipv6" showname="Internet Protocol Version 6, Src: ::1, Dst: ::1" size="40" pos="4">
    <field name="ipv6.version" showname="0110 .... = Version: 6" size="1" pos="4" show="6" value="60"/>
    <field name="ip.version" showname="0110 .... = Version: 6 [This field makes the filter match on &quot;ip.version == 6&quot; possible]" hide="yes" size="1" pos="4" show="6" value="6" unmaskedvalue="60"/>
    <field name="ipv6.tclass" showname=".... 0000 0000 .... .... .... .... .... = Traffic Class: 0x00 (DSCP: CS0, ECN: Not-ECT)" size="4" pos="4" show="0x00000000" value="0" unmaskedvalue="600f481b">
      <field name="ipv6.tclass.dscp" showname=".... 0000 00.. .... .... .... .... .... = Differentiated Services Codepoint: Default (0)" size="4" pos="4" show="0" value="0" unmaskedvalue="600f481b"/>
      <field name="ipv6.tclass.ecn" showname=".... .... ..00 .... .... .... .... .... = Explicit Congestion Notification: Not ECN-Capable Transport (0)" size="4" pos="4" show="0" value="0" unmaskedvalue="600f481b"/>
    </field>
    <field name="ipv6.flow" showname=".... 1111 0100 1000 0001 1011 = Flow Label: 0xf481b" size="3" pos="5" show="0x0f481b" value="F481B" unmaskedvalue="0f481b"/>
    <field name="ipv6.plen" showname="Payload Length: 101" size="2" pos="8" show="101" value="0065"/>
    <field name="ipv6.nxt" showname="Next Header: TCP (6)" size="1" pos="10" show="6" value="06"/>
    <field name="ipv6.hlim" showname="Hop Limit: 128" size="1" pos="11" show="128" value="80"/>
    <field name="ipv6.src" showname="Source Address: ::1" size="16" pos="12" show="::1" value="00000000000000000000000000000001"/>
    <field name="ipv6.addr" showname="Source or Destination Address: ::1" hide="yes" size="16" pos="12" show="::1" value="00000000000000000000000000000001"/>
    <field name="ipv6.src_host" showname="Source Host: ::1" hide="yes" size="16" pos="12" show="::1" value="00000000000000000000000000000001"/>
    <field name="ipv6.host" showname="Source or Destination Host: ::1" hide="yes" size="16" pos="12" show="::1" value="00000000000000000000000000000001"/>
    <field name="ipv6.dst" showname="Destination Address: ::1" size="16" pos="28" show="::1" value="00000000000000000000000000000001"/>
    <field name="ipv6.addr" showname="Source or Destination Address: ::1" hide="yes" size="16" pos="28" show="::1" value="00000000000000000000000000000001"/>
    <field name="ipv6.dst_host" showname="Destination Host: ::1" hide="yes" size="16" pos="28" show="::1" value="00000000000000000000000000000001"/>
    <field name="ipv6.host" showname="Source or Destination Host: ::1" hide="yes" size="16" pos="28" show="::1" value="00000000000000000000000000000001"/>
  </proto>
  <proto name="tcp" showname="Transmission Control Protocol, Src Port: 65505, Dst Port: 5446, Seq: 1, Ack: 1, Len: 81" size="20" pos="44">
    <field name="tcp.srcport" showname="Source Port: 65505" size="2" pos="44" show="65505" value="ffe1"/>
    <field name="tcp.dstport" showname="Destination Port: 5446" size="2" pos="46" show="5446" value="1546"/>
    <field name="tcp.port" showname="Source or Destination Port: 65505" hide="yes" size="2" pos="44" show="65505" value="ffe1"/>
    <field name="tcp.port" showname="Source or Destination Port: 5446" hide="yes" size="2" pos="46" show="5446" value="1546"/>
    <field name="tcp.stream" showname="Stream index: 9" size="0" pos="44" show="9"/>
    <field name="tcp.completeness" showname="Conversation completeness: Incomplete (12)" size="0" pos="44" show="12">
      <field name="tcp.completeness.rst" showname="..0. .... = RST: Absent" size="0" pos="0" show="False"/>
      <field name="tcp.completeness.fin" showname="...0 .... = FIN: Absent" size="0" pos="0" show="False"/>
      <field name="tcp.completeness.data" showname=".... 1... = Data: Present" size="0" pos="0" show="True"/>
      <field name="tcp.completeness.ack" showname=".... .1.. = ACK: Present" size="0" pos="0" show="True"/>
      <field name="tcp.completeness.syn-ack" showname=".... ..0. = SYN-ACK: Absent" size="0" pos="0" show="False"/>
      <field name="tcp.completeness.syn" showname=".... ...0 = SYN: Absent" size="0" pos="0" show="False"/>
      <field name="tcp.completeness.str" showname="Completeness Flags: ··DA··" size="0" pos="44" show="··DA··"/>
    </field>
    <field name="tcp.len" showname="TCP Segment Len: 81" size="0" pos="44" show="81"/>
    <field name="tcp.seq" showname="Sequence Number: 1    (relative sequence number)" size="4" pos="48" show="1" value="d35200c0"/>
    <field name="tcp.seq_raw" showname="Sequence Number (raw): 3545366720" size="4" pos="48" show="3545366720" value="d35200c0"/>
    <field name="tcp.nxtseq" showname="Next Sequence Number: 82    (relative sequence number)" size="0" pos="44" show="82"/>
    <field name="tcp.ack" showname="Acknowledgment Number: 1    (relative ack number)" size="4" pos="52" show="1" value="b946e6d9"/>
    <field name="tcp.ack_raw" showname="Acknowledgment number (raw): 3108431577" size="4" pos="52" show="3108431577" value="b946e6d9"/>
    <field name="tcp.hdr_len" showname="0101 .... = Header Length: 20 bytes (5)" size="1" pos="56" show="20" value="50"/>
    <field name="tcp.flags" showname="Flags: 0x018 (PSH, ACK)" size="2" pos="56" show="0x0018" value="18" unmaskedvalue="5018">
      <field name="tcp.flags.res" showname="000. .... .... = Reserved: Not set" size="1" pos="56" show="False" value="0" unmaskedvalue="50"/>
      <field name="tcp.flags.ae" showname="...0 .... .... = Accurate ECN: Not set" size="1" pos="56" show="False" value="0" unmaskedvalue="50"/>
      <field name="tcp.flags.cwr" showname=".... 0... .... = Congestion Window Reduced: Not set" size="1" pos="57" show="False" value="0" unmaskedvalue="18"/>
      <field name="tcp.flags.ece" showname=".... .0.. .... = ECN-Echo: Not set" size="1" pos="57" show="False" value="0" unmaskedvalue="18"/>
      <field name="tcp.flags.urg" showname=".... ..0. .... = Urgent: Not set" size="1" pos="57" show="False" value="0" unmaskedvalue="18"/>
      <field name="tcp.flags.ack" showname=".... ...1 .... = Acknowledgment: Set" size="1" pos="57" show="True" value="1" unmaskedvalue="18"/>
      <field name="tcp.flags.push" showname=".... .... 1... = Push: Set" size="1" pos="57" show="True" value="1" unmaskedvalue="18"/>
      <field name="tcp.flags.reset" showname=".... .... .0.. = Reset: Not set" size="1" pos="57" show="False" value="0" unmaskedvalue="18"/>
      <field name="tcp.flags.syn" showname=".... .... ..0. = Syn: Not set" size="1" pos="57" show="False" value="0" unmaskedvalue="18"/>
      <field name="tcp.flags.fin" showname=".... .... ...0 = Fin: Not set" size="1" pos="57" show="False" value="0" unmaskedvalue="18"/>
      <field name="tcp.flags.str" showname="TCP Flags: ·······AP···" size="2" pos="56" show="·······AP···" value="5018"/>
    </field>
    <field name="tcp.window_size_value" showname="Window: 164" size="2" pos="58" show="164" value="00a4"/>
    <field name="tcp.window_size" showname="Calculated window size: 164" size="2" pos="58" show="164" value="00a4"/>
    <field name="tcp.window_size_scalefactor" showname="Window size scaling factor: -1 (unknown)" size="2" pos="58" show="-1" value="00a4"/>
    <field name="tcp.checksum" showname="Checksum: 0x356f [unverified]" size="2" pos="60" show="0x356f" value="356f"/>
    <field name="tcp.checksum.status" showname="Checksum Status: Unverified" size="0" pos="60" show="2"/>
    <field name="tcp.urgent_pointer" showname="Urgent Pointer: 0" size="2" pos="62" show="0" value="0000"/>
    <field name="" show="Timestamps" size="0" pos="44">
      <field name="tcp.time_relative" showname="Time since first frame in this TCP stream: 0.000000000 seconds" size="0" pos="44" show="0.000000000"/>
      <field name="tcp.time_delta" showname="Time since previous frame in this TCP stream: 0.000000000 seconds" size="0" pos="44" show="0.000000000"/>
    </field>
    <field name="tcp.analysis" showname="SEQ/ACK analysis" size="0" pos="44" show="" value="">
      <field name="tcp.analysis.bytes_in_flight" showname="Bytes in flight: 81" size="0" pos="44" show="81"/>
      <field name="tcp.analysis.push_bytes_sent" showname="Bytes sent since last PSH flag: 81" size="0" pos="44" show="81"/>
    </field>
    <field name="tcp.payload" showname="TCP payload (81 bytes)" size="81" pos="64" show="50:00:00:00:2b:00:53:45:4c:45:43:54:20:2a:20:46:52:4f:4d:20:65:6d:70:20:57:48:45:52:45:20:64:65:70:74:6e:6f:20:3d:20:32:30:00:00:00:42:00:00:00:0e:00:00:00:00:00:00:00:01:00:01:44:00:00:00:06:50:00:45:00:00:00:09:00:00:00:00:00:53:00:00:00:04" value="500000002b0053454c454354202a2046524f4d20656d7020574845524520646570746e6f203d203230000000420000000e0000000000000001000144000000065000450000000900000000005300000004"/>
    <field name="tcp.pdu.size" showname="PDU Size: 44" size="44" pos="64" show="44" value="500000002b0053454c454354202a2046524f4d20656d7020574845524520646570746e6f203d203230000000"/>
    <field name="tcp.pdu.size" showname="PDU Size: 15" size="15" pos="108" show="15" value="420000000e00000000000000010001"/>
    <field name="tcp.pdu.size" showname="PDU Size: 7" size="7" pos="123" show="7" value="44000000065000"/>
    <field name="tcp.pdu.size" showname="PDU Size: 10" size="10" pos="130" show="10" value="45000000090000000000"/>
    <field name="tcp.pdu.size" showname="PDU Size: 5" size="5" pos="140" show="5" value="5300000004"/>
  </proto>
  <proto name="pgsqledb" showname="EDB Postgres Advanced Server" size="44" pos="64">
    <field name="pgsqledb.type" showname="Type: Parse" size="1" pos="64" show="Parse" value="50"/>
    <field name="pgsqledb.length" showname="Length: 43" size="4" pos="65" show="43" value="0000002b"/>
    <field name="pgsqledb.frontend" showname="Frontend: True" hide="yes" size="0" pos="64" show="True"/>
    <field name="pgsqledb.statement" showname="Statement: " size="1" pos="69" show="" value="00"/>
    <field name="pgsqledb.query" showname="Query: SELECT * FROM emp WHERE deptno = 20" size="36" pos="70" show="SELECT * FROM emp WHERE deptno = 20" value="53454c454354202a2046524f4d20656d7020574845524520646570746e6f203d20323000"/>
    <field name="" show="Parameters: 0" size="2" pos="106" value="0000"/>
  </proto>
  <proto name="pgsqledb" showname="EDB Postgres Advanced Server" size="15" pos="108">
    <field name="pgsqledb.type" showname="Type: Bind" size="1" pos="108" show="Bind" value="42"/>
    <field name="pgsqledb.length" showname="Length: 14" size="4" pos="109" show="14" value="0000000e"/>
    <field name="pgsqledb.frontend" showname="Frontend: True" hide="yes" size="0" pos="108" show="True"/>
    <field name="pgsqledb.portal" showname="Portal: " size="1" pos="113" show="" value="00"/>
    <field name="pgsqledb.statement" showname="Statement: " size="1" pos="114" show="" value="00"/>
    <field name="" show="Parameter formats: 0" size="2" pos="115" value="0000"/>
    <field name="" show="Parameter values: 0" size="2" pos="117" value="0000"/>
    <field name="" show="Result formats: 1" size="2" pos="119" value="0001">
      <field name="pgsqledb.format" showname="Format: Binary (1)" size="2" pos="121" show="1" value="0001"/>
    </field>
  </proto>
  <proto name="pgsqledb" showname="EDB Postgres Advanced Server" size="7" pos="123">
    <field name="pgsqledb.type" showname="Type: Describe" size="1" pos="123" show="Describe" value="44"/>
    <field name="pgsqledb.length" showname="Length: 6" size="4" pos="124" show="6" value="00000006"/>
    <field name="pgsqledb.frontend" showname="Frontend: True" hide="yes" size="0" pos="123" show="True"/>
    <field name="pgsqledb.portal" showname="Portal: " size="1" pos="129" show="" value="00"/>
  </proto>
  <proto name="pgsqledb" showname="EDB Postgres Advanced Server" size="10" pos="130">
    <field name="pgsqledb.type" showname="Type: Execute" size="1" pos="130" show="Execute" value="45"/>
    <field name="pgsqledb.length" showname="Length: 9" size="4" pos="131" show="9" value="00000009"/>
    <field name="pgsqledb.frontend" showname="Frontend: True" hide="yes" size="0" pos="130" show="True"/>
    <field name="pgsqledb.portal" showname="Portal: " size="1" pos="135" show="" value="00"/>
    <field name="pgsqledb.returns" showname="Returns: all rows" size="4" pos="136" show="0" value="00000000"/>
  </proto>
  <proto name="pgsqledb" showname="EDB Postgres Advanced Server" size="5" pos="140">
    <field name="pgsqledb.type" showname="Type: Sync" size="1" pos="140" show="Sync" value="53"/>
    <field name="pgsqledb.length" showname="Length: 4" size="4" pos="141" show="4" value="00000004"/>
    <field name="pgsqledb.frontend" showname="Frontend: True" hide="yes" size="0" pos="140" show="True"/>
  </proto>
</packet>

<packet>
  <proto name="geninfo" pos="0" showname="General information" size="779">
    <field name="num" pos="0" show="113" showname="Number" value="71" size="779"/>
    <field name="len" pos="0" show="779" showname="Frame Length" value="30b" size="779"/>
    <field name="caplen" pos="0" show="779" showname="Captured Length" value="30b" size="779"/>
    <field name="timestamp" pos="0" show="Nov 28, 2024 21:40:23.264785000 Romance Standard Time" showname="Captured Time" value="1732826423.264785000" size="779"/>
  </proto>
  <proto name="frame" showname="Frame 113: 779 bytes on wire (6232 bits), 779 bytes captured (6232 bits) on interface \Device\NPF_Loopback, id 0" size="779" pos="0">
    <field name="frame.section_number" showname="Section number: 1" size="0" pos="0" show="1"/>
    <field name="frame.interface_id" showname="Interface id: 0 (\Device\NPF_Loopback)" size="0" pos="0" show="0">
      <field name="frame.interface_name" showname="Interface name: \Device\NPF_Loopback" size="0" pos="0" show="\Device\NPF_Loopback"/>
    </field>
    <field name="frame.encap_type" showname="Encapsulation type: NULL/Loopback (15)" size="0" pos="0" show="15"/>
    <field name="frame.time" showname="Arrival Time: Nov 28, 2024 21:40:23.264785000 Romance Standard Time" size="0" pos="0" show="Nov 28, 2024 21:40:23.264785000 Romance Standard Time"/>
    <field name="frame.time_utc" showname="UTC Arrival Time: Nov 28, 2024 20:40:23.264785000 UTC" size="0" pos="0" show="Nov 28, 2024 20:40:23.264785000 UTC"/>
    <field name="frame.time_epoch" showname="Epoch Arrival Time: 1732826423.264785000" size="0" pos="0" show="1732826423.264785000"/>
    <field name="frame.offset_shift" showname="Time shift for this packet: 0.000000000 seconds" size="0" pos="0" show="0.000000000"/>
    <field name="frame.time_delta" showname="Time delta from previous captured frame: 0.002007000 seconds" size="0" pos="0" show="0.002007000"/>
    <field name="frame.time_delta_displayed" showname="Time delta from previous displayed frame: 0.002377000 seconds" size="0" pos="0" show="0.002377000"/>
    <field name="frame.time_relative" showname="Time since reference or first frame: 1.375716000 seconds" size="0" pos="0" show="1.375716000"/>
    <field name="frame.number" showname="Frame Number: 113" size="0" pos="0" show="113"/>
    <field name="frame.len" showname="Frame Length: 779 bytes (6232 bits)" size="0" pos="0" show="779"/>
    <field name="frame.cap_len" showname="Capture Length: 779 bytes (6232 bits)" size="0" pos="0" show="779"/>
    <field name="frame.marked" showname="Frame is marked: False" size="0" pos="0" show="False"/>
    <field name="frame.ignored" showname="Frame is ignored: False" size="0" pos="0" show="False"/>
    <field name="frame.protocols" showname="Protocols in frame: null:ipv6:tcp:pgsqledb" size="0" pos="0" show="null:ipv6:tcp:pgsqledb"/>
    <field name="frame.coloring_rule.name" showname="Coloring Rule Name: TCP" size="0" pos="0" show="TCP"/>
    <field name="frame.coloring_rule.string" showname="Coloring Rule String: tcp" size="0" pos="0" show="tcp"/>
  </proto>
  <proto name="null" showname="Null/Loopback" size="4" pos="0">
    <field name="null.family" showname="Family: IPv6 (24)" size="4" pos="0" show="24" value="18000000"/>
  </proto>
  <proto name="ipv6" showname="Internet Protocol Version 6, Src: ::1, Dst: ::1" size="40" pos="4">
    <field name="ipv6.version" showname="0110 .... = Version: 6" size="1" pos="4" show="6" value="60"/>
    <field name="ip.version" showname="0110 .... = Version: 6 [This field makes the filter match on &quot;ip.version == 6&quot; possible]" hide="yes" size="1" pos="4" show="6" value="6" unmaskedvalue="60"/>
    <field name="ipv6.tclass" showname=".... 0000 0000 .... .... .... .... .... = Traffic Class: 0x00 (DSCP: CS0, ECN: Not-ECT)" size="4" pos="4" show="0x00000000" value="0" unmaskedvalue="60077dc9">
      <field name="ipv6.tclass.dscp" showname=".... 0000 00.. .... .... .... .... .... = Differentiated Services Codepoint: Default (0)" size="4" pos="4" show="0" value="0" unmaskedvalue="60077dc9"/>
      <field name="ipv6.tclass.ecn" showname=".... .... ..00 .... .... .... .... .... = Explicit Congestion Notification: Not ECN-Capable Transport (0)" size="4" pos="4" show="0" value="0" unmaskedvalue="60077dc9"/>
    </field>
    <field name="ipv6.flow" showname=".... 0111 0111 1101 1100 1001 = Flow Label: 0x77dc9" size="3" pos="5" show="0x077dc9" value="77DC9" unmaskedvalue="077dc9"/>
    <field name="ipv6.plen" showname="Payload Length: 735" size="2" pos="8" show="735" value="02df"/>
    <field name="ipv6.nxt" showname="Next Header: TCP (6)" size="1" pos="10" show="6" value="06"/>
    <field name="ipv6.hlim" showname="Hop Limit: 128" size="1" pos="11" show="128" value="80"/>
    <field name="ipv6.src" showname="Source Address: ::1" size="16" pos="12" show="::1" value="00000000000000000000000000000001"/>
    <field name="ipv6.addr" showname="Source or Destination Address: ::1" hide="yes" size="16" pos="12" show="::1" value="00000000000000000000000000000001"/>
    <field name="ipv6.src_host" showname="Source Host: ::1" hide="yes" size="16" pos="12" show="::1" value="00000000000000000000000000000001"/>
    <field name="ipv6.host" showname="Source or Destination Host: ::1" hide="yes" size="16" pos="12" show="::1" value="00000000000000000000000000000001"/>
    <field name="ipv6.dst" showname="Destination Address: ::1" size="16" pos="28" show="::1" value="00000000000000000000000000000001"/>
    <field name="ipv6.addr" showname="Source or Destination Address: ::1" hide="yes" size="16" pos="28" show="::1" value="00000000000000000000000000000001"/>
    <field name="ipv6.dst_host" showname="Destination Host: ::1" hide="yes" size="16" pos="28" show="::1" value="00000000000000000000000000000001"/>
    <field name="ipv6.host" showname="Source or Destination Host: ::1" hide="yes" size="16" pos="28" show="::1" value="00000000000000000000000000000001"/>
  </proto>
  <proto name="tcp" showname="Transmission Control Protocol, Src Port: 5446, Dst Port: 65505, Seq: 1, Ack: 82, Len: 715" size="20" pos="44">
    <field name="tcp.srcport" showname="Source Port: 5446" size="2" pos="44" show="5446" value="1546"/>
    <field name="tcp.dstport" showname="Destination Port: 65505" size="2" pos="46" show="65505" value="ffe1"/>
    <field name="tcp.port" showname="Source or Destination Port: 5446" hide="yes" size="2" pos="44" show="5446" value="1546"/>
    <field name="tcp.port" showname="Source or Destination Port: 65505" hide="yes" size="2" pos="46" show="65505" value="ffe1"/>
    <field name="tcp.stream" showname="Stream index: 9" size="0" pos="44" show="9"/>
    <field name="tcp.completeness" showname="Conversation completeness: Incomplete (12)" size="0" pos="44" show="12">
      <field name="tcp.completeness.rst" showname="..0. .... = RST: Absent" size="0" pos="0" show="False"/>
      <field name="tcp.completeness.fin" showname="...0 .... = FIN: Absent" size="0" pos="0" show="False"/>
      <field name="tcp.completeness.data" showname=".... 1... = Data: Present" size="0" pos="0" show="True"/>
      <field name="tcp.completeness.ack" showname=".... .1.. = ACK: Present" size="0" pos="0" show="True"/>
      <field name="tcp.completeness.syn-ack" showname=".... ..0. = SYN-ACK: Absent" size="0" pos="0" show="False"/>
      <field name="tcp.completeness.syn" showname=".... ...0 = SYN: Absent" size="0" pos="0" show="False"/>
      <field name="tcp.completeness.str" showname="Completeness Flags: ··DA··" size="0" pos="44" show="··DA··"/>
    </field>
    <field name="tcp.len" showname="TCP Segment Len: 715" size="0" pos="44" show="715"/>
    <field name="tcp.seq" showname="Sequence Number: 1    (relative sequence number)" size="4" pos="48" show="1" value="b946e6d9"/>
    <field name="tcp.seq_raw" showname="Sequence Number (raw): 3108431577" size="4" pos="48" show="3108431577" value="b946e6d9"/>
    <field name="tcp.nxtseq" showname="Next Sequence Number: 716    (relative sequence number)" size="0" pos="44" show="716"/>
    <field name="tcp.ack" showname="Acknowledgment Number: 82    (relative ack number)" size="4" pos="52" show="82" value="d3520111"/>
    <field name="tcp.ack_raw" showname="Acknowledgment number (raw): 3545366801" size="4" pos="52" show="3545366801" value="d3520111"/>
    <field name="tcp.hdr_len" showname="0101 .... = Header Length: 20 bytes (5)" size="1" pos="56" show="20" value="50"/>
    <field name="tcp.flags" showname="Flags: 0x018 (PSH, ACK)" size="2" pos="56" show="0x0018" value="18" unmaskedvalue="5018">
      <field name="tcp.flags.res" showname="000. .... .... = Reserved: Not set" size="1" pos="56" show="False" value="0" unmaskedvalue="50"/>
      <field name="tcp.flags.ae" showname="...0 .... .... = Accurate ECN: Not set" size="1" pos="56" show="False" value="0" unmaskedvalue="50"/>
      <field name="tcp.flags.cwr" showname=".... 0... .... = Congestion Window Reduced: Not set" size="1" pos="57" show="False" value="0" unmaskedvalue="18"/>
      <field name="tcp.flags.ece" showname=".... .0.. .... = ECN-Echo: Not set" size="1" pos="57" show="False" value="0" unmaskedvalue="18"/>
      <field name="tcp.flags.urg" showname=".... ..0. .... = Urgent: Not set" size="1" pos="57" show="False" value="0" unmaskedvalue="18"/>
      <field name="tcp.flags.ack" showname=".... ...1 .... = Acknowledgment: Set" size="1" pos="57" show="True" value="1" unmaskedvalue="18"/>
      <field name="tcp.flags.push" showname=".... .... 1... = Push: Set" size="1" pos="57" show="True" value="1" unmaskedvalue="18"/>
      <field name="tcp.flags.reset" showname=".... .... .0.. = Reset: Not set" size="1" pos="57" show="False" value="0" unmaskedvalue="18"/>
      <field name="tcp.flags.syn" showname=".... .... ..0. = Syn: Not set" size="1" pos="57" show="False" value="0" unmaskedvalue="18"/>
      <field name="tcp.flags.fin" showname=".... .... ...0 = Fin: Not set" size="1" pos="57" show="False" value="0" unmaskedvalue="18"/>
      <field name="tcp.flags.str" showname="TCP Flags: ·······AP···" size="2" pos="56" show="·······AP···" value="5018"/>
    </field>
    <field name="tcp.window_size_value" showname="Window: 235" size="2" pos="58" show="235" value="00eb"/>
    <field name="tcp.window_size" showname="Calculated window size: 235" size="2" pos="58" show="235" value="00eb"/>
    <field name="tcp.window_size_scalefactor" showname="Window size scaling factor: -1 (unknown)" size="2" pos="58" show="-1" value="00eb"/>
    <field name="tcp.checksum" showname="Checksum: 0xb3cd [unverified]" size="2" pos="60" show="0xb3cd" value="b3cd"/>
    <field name="tcp.checksum.status" showname="Checksum Status: Unverified" size="0" pos="60" show="2"/>
    <field name="tcp.urgent_pointer" showname="Urgent Pointer: 0" size="2" pos="62" show="0" value="0000"/>
    <field name="" show="Timestamps" size="0" pos="44">
      <field name="tcp.time_relative" showname="Time since first frame in this TCP stream: 0.002377000 seconds" size="0" pos="44" show="0.002377000"/>
      <field name="tcp.time_delta" showname="Time since previous frame in this TCP stream: 0.002310000 seconds" size="0" pos="44" show="0.002310000"/>
    </field>
    <field name="tcp.analysis" showname="SEQ/ACK analysis" size="0" pos="44" show="" value="">
      <field name="tcp.analysis.bytes_in_flight" showname="Bytes in flight: 715" size="0" pos="44" show="715"/>
      <field name="tcp.analysis.push_bytes_sent" showname="Bytes sent since last PSH flag: 715" size="0" pos="44" show="715"/>
    </field>
    <field name="tcp.payload" showname="TCP payload (715 bytes)" size="715" pos="64" show="31:00:00:00:04:32:00:00:00:04:54:00:00:00:c3:00:08:65:6d:70:6e:6f:00:00:00:40:07:00:01:00:00:06:a4:ff:ff:00:04:00:04:00:01:65:6e:61:6d:65:00:00:00:40:07:00:02:00:00:04:13:ff:ff:00:00:00:0e:00:01:6a:6f:62:00:00:00:40:07:00:03:00:00:04:13:ff:ff:00:00:00:0d:00:01:6d:67:72:00:00:00:40:07:00:04:00:00:06:a4:ff:ff:00:04:00:04:00:01:68:69:72:65:64:61:74:65:00:00:00:40:07:00:05:00:00:04:5a:00:08:ff:ff:ff:ff:00:01:73:61:6c:00:00:00:40:07:00:06:00:00:06:a4:ff:ff:00:07:00:06:00:01:63:6f:6d:6d:00:00:00:40:07:00:07:00:00:06:a4:ff:ff:00:07:00:06:00:01:64:65:70:74:6e:6f:00:00:00:40:07:00:08:00:00:06:a4:ff:ff:00:02:00:04:00:01:44:00:00:00:62:00:08:00:00:00:0a:00:01:00:00:00:00:00:00:1d:8e:00:00:00:05:4a:4f:4e:45:53:00:00:00:07:4d:41:4e:41:47:45:52:00:00:00:0a:00:01:00:00:00:00:00:00:1e:9f:00:00:00:08:ff:fd:e5:e1:be:b8:00:00:00:00:00:0a:00:01:00:00:00:00:00:02:0b:9f:ff:ff:ff:ff:00:00:00:0a:00:01:00:00:00:00:00:00:00:14:44:00:00:00:62:00:08:00:00:00:0a:00:01:00:00:00:00:00:00:1e:6c:00:00:00:05:53:43:4f:54:54:00:00:00:07:41:4e:41:4c:59:53:54:00:00:00:0a:00:01:00:00:00:00:00:00:1d:8e:00:00:00:08:ff:fe:93:63:20:54:00:00:00:00:00:0a:00:01:00:00:00:00:00:02:0b:b8:ff:ff:ff:ff:00:00:00:0a:00:01:00:00:00:00:00:00:00:14:44:00:00:00:60:00:08:00:00:00:0a:00:01:00:00:00:00:00:00:1e:c4:00:00:00:05:41:44:41:4d:53:00:00:00:05:43:4c:45:52:4b:00:00:00:0a:00:01:00:00:00:00:00:00:1e:6c:00:00:00:08:ff:fe:96:0f:16:ee:c0:00:00:00:00:0a:00:01:00:00:00:00:00:02:04:4c:ff:ff:ff:ff:00:00:00:0a:00:01:00:00:00:00:00:00:00:14:44:00:00:00:61:00:08:00:00:00:0a:00:01:00:00:00:00:00:00:1e:de:00:00:00:04:46:4f:52:44:00:00:00:07:41:4e:41:4c:59:53:54:00:00:00:0a:00:01:00:00:00:00:00:00:1d:8e:00:00:00:08:ff:fd:f9:22:4d:d6:e0:00:00:00:00:0a:00:01:00:00:00:00:00:02:0b:b8:ff:ff:ff:ff:00:00:00:0a:00:01:00:00:00:00:00:00:00:14:44:00:00:00:5f:00:08:00:00:00:0a:00:01:00:00:00:00:00:00:1c:c9:00:00:00:04:4d:61:72:6b:00:00:00:05:43:4c:45:52:4b:00:00:00:0a:00:01:00:00:00:00:00:00:1e:de:00:00:00:08:ff:fd:dd:8d:63:8a:40:00:00:00:00:0a:00:01:00:00:00:00:00:02:03:20:ff:ff:ff:ff:00:00:00:0a:00:01:00:00:00:00:00:00:00:14:43:00:00:00:0d:53:45:4c:45:43:54:20:35:00:5a:00:00:00:05:49" value="3100000004320000000454000000c30008656d706e6f00000040070001000006a4ffff000400040001656e616d650000004007000200000413ffff0000000e00016a6f620000004007000300000413ffff0000000d00016d677200000040070004000006a4ffff0004000400016869726564617465000000400700050000045a0008ffffffff000173616c00000040070006000006a4ffff000700060001636f6d6d00000040070007000006a4ffff000700060001646570746e6f00000040070008000006a4ffff000200040001440000006200080000000a00010000000000001d8e000000054a4f4e4553000000074d414e414745520000000a00010000000000001e9f00000008fffde5e1beb800000000000a00010000000000020b9fffffffff0000000a00010000000000000014440000006200080000000a00010000000000001e6c0000000553434f545400000007414e414c5953540000000a00010000000000001d8e00000008fffe9363205400000000000a00010000000000020bb8ffffffff0000000a00010000000000000014440000006000080000000a00010000000000001ec4000000054144414d5300000005434c45524b0000000a00010000000000001e6c00000008fffe960f16eec0000000000a0001000000000002044cffffffff0000000a00010000000000000014440000006100080000000a00010000000000001ede00000004464f524400000007414e414c5953540000000a00010000000000001d8e00000008fffdf9224dd6e0000000000a00010000000000020bb8ffffffff0000000a00010000000000000014440000005f00080000000a00010000000000001cc9000000044d61726b00000005434c45524b0000000a00010000000000001ede00000008fffddd8d638a40000000000a00010000000000020320ffffffff0000000a00010000000000000014430000000d53454c4543542035005a0000000549"/>
    <field name="tcp.pdu.size" showname="PDU Size: 5" size="5" pos="64" show="5" value="3100000004"/>
    <field name="tcp.pdu.size" showname="PDU Size: 5" size="5" pos="69" show="5" value="3200000004"/>
    <field name="tcp.pdu.size" showname="PDU Size: 196" size="196" pos="74" show="196" value="54000000c30008656d706e6f00000040070001000006a4ffff000400040001656e616d650000004007000200000413ffff0000000e00016a6f620000004007000300000413ffff0000000d00016d677200000040070004000006a4ffff0004000400016869726564617465000000400700050000045a0008ffffffff000173616c00000040070006000006a4ffff000700060001636f6d6d00000040070007000006a4ffff000700060001646570746e6f00000040070008000006a4ffff000200040001"/>
    <field name="tcp.pdu.size" showname="PDU Size: 99" size="99" pos="270" show="99" value="440000006200080000000a00010000000000001d8e000000054a4f4e4553000000074d414e414745520000000a00010000000000001e9f00000008fffde5e1beb800000000000a00010000000000020b9fffffffff0000000a00010000000000000014"/>
    <field name="tcp.pdu.size" showname="PDU Size: 99" size="99" pos="369" show="99" value="440000006200080000000a00010000000000001e6c0000000553434f545400000007414e414c5953540000000a00010000000000001d8e00000008fffe9363205400000000000a00010000000000020bb8ffffffff0000000a00010000000000000014"/>
    <field name="tcp.pdu.size" showname="PDU Size: 97" size="97" pos="468" show="97" value="440000006000080000000a00010000000000001ec4000000054144414d5300000005434c45524b0000000a00010000000000001e6c00000008fffe960f16eec0000000000a0001000000000002044cffffffff0000000a00010000000000000014"/>
    <field name="tcp.pdu.size" showname="PDU Size: 98" size="98" pos="565" show="98" value="440000006100080000000a00010000000000001ede00000004464f524400000007414e414c5953540000000a00010000000000001d8e00000008fffdf9224dd6e0000000000a00010000000000020bb8ffffffff0000000a00010000000000000014"/>
    <field name="tcp.pdu.size" showname="PDU Size: 96" size="96" pos="663" show="96" value="440000005f00080000000a00010000000000001cc9000000044d61726b00000005434c45524b0000000a00010000000000001ede00000008fffddd8d638a40000000000a00010000000000020320ffffffff0000000a00010000000000000014"/>
    <field name="tcp.pdu.size" showname="PDU Size: 14" size="14" pos="759" show="14" value="430000000d53454c454354203500"/>
    <field name="tcp.pdu.size" showname="PDU Size: 6" size="6" pos="773" show="6" value="5a0000000549"/>
  </proto>
  <proto name="pgsqledb" showname="EDB Postgres Advanced Server" size="5" pos="64">
    <field name="pgsqledb.type" showname="Type: Parse completion" size="1" pos="64" show="Parse completion" value="31"/>
    <field name="pgsqledb.length" showname="Length: 4" size="4" pos="65" show="4" value="00000004"/>
    <field name="pgsqledb.frontend" showname="Frontend: False" hide="yes" size="0" pos="64" show="False"/>
  </proto>
  <proto name="pgsqledb" showname="EDB Postgres Advanced Server" size="5" pos="69">
    <field name="pgsqledb.type" showname="Type: Bind completion" size="1" pos="69" show="Bind completion" value="32"/>
    <field name="pgsqledb.length" showname="Length: 4" size="4" pos="70" show="4" value="00000004"/>
    <field name="pgsqledb.frontend" showname="Frontend: False" hide="yes" size="0" pos="69" show="False"/>
  </proto>
  <proto name="pgsqledb" showname="EDB Postgres Advanced Server" size="196" pos="74">
    <field name="pgsqledb.type" showname="Type: Row description" size="1" pos="74" show="Row description" value="54"/>
    <field name="pgsqledb.length" showname="Length: 195" size="4" pos="75" show="195" value="000000c3"/>
    <field name="pgsqledb.frontend" showname="Frontend: False" hide="yes" size="0" pos="74" show="False"/>
    <field name="pgsqledb.field.count" showname="Field count: 8" size="2" pos="79" show="8" value="0008">
      <field name="pgsqledb.col.name" showname="Column name: empno" size="6" pos="81" show="empno" value="656d706e6f00">
        <field name="pgsqledb.oid.table" showname="Table OID: 16391" size="4" pos="87" show="16391" value="00004007"/>
        <field name="pgsqledb.col.index" showname="Column index: 1" size="2" pos="91" show="1" value="0001"/>
        <field name="pgsqledb.oid.type" showname="Type OID: 1700" size="4" pos="93" show="1700" value="000006a4"/>
        <field name="pgsqledb.val.length" showname="Column length: -1" size="2" pos="97" show="-1" value="ffff"/>
        <field name="pgsqledb.col.typemod" showname="Type modifier: 262148" size="4" pos="99" show="262148" value="00040004"/>
        <field name="pgsqledb.format" showname="Format: Binary (1)" size="2" pos="103" show="1" value="0001"/>
      </field>
      <field name="pgsqledb.col.name" showname="Column name: ename" size="6" pos="105" show="ename" value="656e616d6500">
        <field name="pgsqledb.oid.table" showname="Table OID: 16391" size="4" pos="111" show="16391" value="00004007"/>
        <field name="pgsqledb.col.index" showname="Column index: 2" size="2" pos="115" show="2" value="0002"/>
        <field name="pgsqledb.oid.type" showname="Type OID: 1043" size="4" pos="117" show="1043" value="00000413"/>
        <field name="pgsqledb.val.length" showname="Column length: -1" size="2" pos="121" show="-1" value="ffff"/>
        <field name="pgsqledb.col.typemod" showname="Type modifier: 14" size="4" pos="123" show="14" value="0000000e"/>
        <field name="pgsqledb.format" showname="Format: Binary (1)" size="2" pos="127" show="1" value="0001"/>
      </field>
      <field name="pgsqledb.col.name" showname="Column name: job" size="4" pos="129" show="job" value="6a6f6200">
        <field name="pgsqledb.oid.table" showname="Table OID: 16391" size="4" pos="133" show="16391" value="00004007"/>
        <field name="pgsqledb.col.index" showname="Column index: 3" size="2" pos="137" show="3" value="0003"/>
        <field name="pgsqledb.oid.type" showname="Type OID: 1043" size="4" pos="139" show="1043" value="00000413"/>
        <field name="pgsqledb.val.length" showname="Column length: -1" size="2" pos="143" show="-1" value="ffff"/>
        <field name="pgsqledb.col.typemod" showname="Type modifier: 13" size="4" pos="145" show="13" value="0000000d"/>
        <field name="pgsqledb.format" showname="Format: Binary (1)" size="2" pos="149" show="1" value="0001"/>
      </field>
      <field name="pgsqledb.col.name" showname="Column name: mgr" size="4" pos="151" show="mgr" value="6d677200">
        <field name="pgsqledb.oid.table" showname="Table OID: 16391" size="4" pos="155" show="16391" value="00004007"/>
        <field name="pgsqledb.col.index" showname="Column index: 4" size="2" pos="159" show="4" value="0004"/>
        <field name="pgsqledb.oid.type" showname="Type OID: 1700" size="4" pos="161" show="1700" value="000006a4"/>
        <field name="pgsqledb.val.length" showname="Column length: -1" size="2" pos="165" show="-1" value="ffff"/>
        <field name="pgsqledb.col.typemod" showname="Type modifier: 262148" size="4" pos="167" show="262148" value="00040004"/>
        <field name="pgsqledb.format" showname="Format: Binary (1)" size="2" pos="171" show="1" value="0001"/>
      </field>
      <field name="pgsqledb.col.name" showname="Column name: hiredate" size="9" pos="173" show="hiredate" value="686972656461746500">
        <field name="pgsqledb.oid.table" showname="Table OID: 16391" size="4" pos="182" show="16391" value="00004007"/>
        <field name="pgsqledb.col.index" showname="Column index: 5" size="2" pos="186" show="5" value="0005"/>
        <field name="pgsqledb.oid.type" showname="Type OID: 1114" size="4" pos="188" show="1114" value="0000045a"/>
        <field name="pgsqledb.val.length" showname="Column length: 8" size="2" pos="192" show="8" value="0008"/>
        <field name="pgsqledb.col.typemod" showname="Type modifier: -1" size="4" pos="194" show="-1" value="ffffffff"/>
        <field name="pgsqledb.format" showname="Format: Binary (1)" size="2" pos="198" show="1" value="0001"/>
      </field>
      <field name="pgsqledb.col.name" showname="Column name: sal" size="4" pos="200" show="sal" value="73616c00">
        <field name="pgsqledb.oid.table" showname="Table OID: 16391" size="4" pos="204" show="16391" value="00004007"/>
        <field name="pgsqledb.col.index" showname="Column index: 6" size="2" pos="208" show="6" value="0006"/>
        <field name="pgsqledb.oid.type" showname="Type OID: 1700" size="4" pos="210" show="1700" value="000006a4"/>
        <field name="pgsqledb.val.length" showname="Column length: -1" size="2" pos="214" show="-1" value="ffff"/>
        <field name="pgsqledb.col.typemod" showname="Type modifier: 458758" size="4" pos="216" show="458758" value="00070006"/>
        <field name="pgsqledb.format" showname="Format: Binary (1)" size="2" pos="220" show="1" value="0001"/>
      </field>
      <field name="pgsqledb.col.name" showname="Column name: comm" size="5" pos="222" show="comm" value="636f6d6d00">
        <field name="pgsqledb.oid.table" showname="Table OID: 16391" size="4" pos="227" show="16391" value="00004007"/>
        <field name="pgsqledb.col.index" showname="Column index: 7" size="2" pos="231" show="7" value="0007"/>
        <field name="pgsqledb.oid.type" showname="Type OID: 1700" size="4" pos="233" show="1700" value="000006a4"/>
        <field name="pgsqledb.val.length" showname="Column length: -1" size="2" pos="237" show="-1" value="ffff"/>
        <field name="pgsqledb.col.typemod" showname="Type modifier: 458758" size="4" pos="239" show="458758" value="00070006"/>
        <field name="pgsqledb.format" showname="Format: Binary (1)" size="2" pos="243" show="1" value="0001"/>
      </field>
      <field name="pgsqledb.col.name" showname="Column name: deptno" size="7" pos="245" show="deptno" value="646570746e6f00">
        <field name="pgsqledb.oid.table" showname="Table OID: 16391" size="4" pos="252" show="16391" value="00004007"/>
        <field name="pgsqledb.col.index" showname="Column index: 8" size="2" pos="256" show="8" value="0008"/>
        <field name="pgsqledb.oid.type" showname="Type OID: 1700" size="4" pos="258" show="1700" value="000006a4"/>
        <field name="pgsqledb.val.length" showname="Column length: -1" size="2" pos="262" show="-1" value="ffff"/>
        <field name="pgsqledb.col.typemod" showname="Type modifier: 131076" size="4" pos="264" show="131076" value="00020004"/>
        <field name="pgsqledb.format" showname="Format: Binary (1)" size="2" pos="268" show="1" value="0001"/>
      </field>
    </field>
  </proto>
  <proto name="pgsqledb" showname="EDB Postgres Advanced Server" size="99" pos="270">
    <field name="pgsqledb.type" showname="Type: Data row" size="1" pos="270" show="Data row" value="44"/>
    <field name="pgsqledb.length" showname="Length: 98" size="4" pos="271" show="98" value="00000062"/>
    <field name="pgsqledb.frontend" showname="Frontend: False" hide="yes" size="0" pos="270" show="False"/>
    <field name="pgsqledb.field.count" showname="Field count: 8" size="2" pos="275" show="8" value="0008">
      <field name="pgsqledb.val.length" showname="Column length: 10" size="4" pos="277" show="10" value="0000000a"/>
      <field name="pgsqledb.val.data" showname="Data: 00010000000000001d8e" size="10" pos="281" show="00:01:00:00:00:00:00:00:1d:8e" value="00010000000000001d8e"/>
      <field name="pgsqledb.val.length" showname="Column length: 5" size="4" pos="291" show="5" value="00000005"/>
      <field name="pgsqledb.val.data" showname="Data: 4a4f4e4553" size="5" pos="295" show="4a:4f:4e:45:53" value="4a4f4e4553"/>
      <field name="pgsqledb.val.length" showname="Column length: 7" size="4" pos="300" show="7" value="00000007"/>
      <field name="pgsqledb.val.data" showname="Data: 4d414e41474552" size="7" pos="304" show="4d:41:4e:41:47:45:52" value="4d414e41474552"/>
      <field name="pgsqledb.val.length" showname="Column length: 10" size="4" pos="311" show="10" value="0000000a"/>
      <field name="pgsqledb.val.data" showname="Data: 00010000000000001e9f" size="10" pos="315" show="00:01:00:00:00:00:00:00:1e:9f" value="00010000000000001e9f"/>
      <field name="pgsqledb.val.length" showname="Column length: 8" size="4" pos="325" show="8" value="00000008"/>
      <field name="pgsqledb.val.data" showname="Data: fffde5e1beb80000" size="8" pos="329" show="ff:fd:e5:e1:be:b8:00:00" value="fffde5e1beb80000"/>
      <field name="pgsqledb.val.length" showname="Column length: 10" size="4" pos="337" show="10" value="0000000a"/>
      <field name="pgsqledb.val.data" showname="Data: 00010000000000020b9f" size="10" pos="341" show="00:01:00:00:00:00:00:02:0b:9f" value="00010000000000020b9f"/>
      <field name="pgsqledb.val.length" showname="Column length: -1" size="4" pos="351" show="-1" value="ffffffff"/>
      <field name="pgsqledb.val.length" showname="Column length: 10" size="4" pos="355" show="10" value="0000000a"/>
      <field name="pgsqledb.val.data" showname="Data: 00010000000000000014" size="10" pos="359" show="00:01:00:00:00:00:00:00:00:14" value="00010000000000000014"/>
    </field>
  </proto>
  <proto name="pgsqledb" showname="EDB Postgres Advanced Server" size="99" pos="369">
    <field name="pgsqledb.type" showname="Type: Data row" size="1" pos="369" show="Data row" value="44"/>
    <field name="pgsqledb.length" showname="Length: 98" size="4" pos="370" show="98" value="00000062"/>
    <field name="pgsqledb.frontend" showname="Frontend: False" hide="yes" size="0" pos="369" show="False"/>
    <field name="pgsqledb.field.count" showname="Field count: 8" size="2" pos="374" show="8" value="0008">
      <field name="pgsqledb.val.length" showname="Column length: 10" size="4" pos="376" show="10" value="0000000a"/>
      <field name="pgsqledb.val.data" showname="Data: 00010000000000001e6c" size="10" pos="380" show="00:01:00:00:00:00:00:00:1e:6c" value="00010000000000001e6c"/>
      <field name="pgsqledb.val.length" showname="Column length: 5" size="4" pos="390" show="5" value="00000005"/>
      <field name="pgsqledb.val.data" showname="Data: 53434f5454" size="5" pos="394" show="53:43:4f:54:54" value="53434f5454"/>
      <field name="pgsqledb.val.length" showname="Column length: 7" size="4" pos="399" show="7" value="00000007"/>
      <field name="pgsqledb.val.data" showname="Data: 414e414c595354" size="7" pos="403" show="41:4e:41:4c:59:53:54" value="414e414c595354"/>
      <field name="pgsqledb.val.length" showname="Column length: 10" size="4" pos="410" show="10" value="0000000a"/>
      <field name="pgsqledb.val.data" showname="Data: 00010000000000001d8e" size="10" pos="414" show="00:01:00:00:00:00:00:00:1d:8e" value="00010000000000001d8e"/>
      <field name="pgsqledb.val.length" showname="Column length: 8" size="4" pos="424" show="8" value="00000008"/>
      <field name="pgsqledb.val.data" showname="Data: fffe936320540000" size="8" pos="428" show="ff:fe:93:63:20:54:00:00" value="fffe936320540000"/>
      <field name="pgsqledb.val.length" showname="Column length: 10" size="4" pos="436" show="10" value="0000000a"/>
      <field name="pgsqledb.val.data" showname="Data: 00010000000000020bb8" size="10" pos="440" show="00:01:00:00:00:00:00:02:0b:b8" value="00010000000000020bb8"/>
      <field name="pgsqledb.val.length" showname="Column length: -1" size="4" pos="450" show="-1" value="ffffffff"/>
      <field name="pgsqledb.val.length" showname="Column length: 10" size="4" pos="454" show="10" value="0000000a"/>
      <field name="pgsqledb.val.data" showname="Data: 00010000000000000014" size="10" pos="458" show="00:01:00:00:00:00:00:00:00:14" value="00010000000000000014"/>
    </field>
  </proto>
  <proto name="pgsqledb" showname="EDB Postgres Advanced Server" size="97" pos="468">
    <field name="pgsqledb.type" showname="Type: Data row" size="1" pos="468" show="Data row" value="44"/>
    <field name="pgsqledb.length" showname="Length: 96" size="4" pos="469" show="96" value="00000060"/>
    <field name="pgsqledb.frontend" showname="Frontend: False" hide="yes" size="0" pos="468" show="False"/>
    <field name="pgsqledb.field.count" showname="Field count: 8" size="2" pos="473" show="8" value="0008">
      <field name="pgsqledb.val.length" showname="Column length: 10" size="4" pos="475" show="10" value="0000000a"/>
      <field name="pgsqledb.val.data" showname="Data: 00010000000000001ec4" size="10" pos="479" show="00:01:00:00:00:00:00:00:1e:c4" value="00010000000000001ec4"/>
      <field name="pgsqledb.val.length" showname="Column length: 5" size="4" pos="489" show="5" value="00000005"/>
      <field name="pgsqledb.val.data" showname="Data: 4144414d53" size="5" pos="493" show="41:44:41:4d:53" value="4144414d53"/>
      <field name="pgsqledb.val.length" showname="Column length: 5" size="4" pos="498" show="5" value="00000005"/>
      <field name="pgsqledb.val.data" showname="Data: 434c45524b" size="5" pos="502" show="43:4c:45:52:4b" value="434c45524b"/>
      <field name="pgsqledb.val.length" showname="Column length: 10" size="4" pos="507" show="10" value="0000000a"/>
      <field name="pgsqledb.val.data" showname="Data: 00010000000000001e6c" size="10" pos="511" show="00:01:00:00:00:00:00:00:1e:6c" value="00010000000000001e6c"/>
      <field name="pgsqledb.val.length" showname="Column length: 8" size="4" pos="521" show="8" value="00000008"/>
      <field name="pgsqledb.val.data" showname="Data: fffe960f16eec000" size="8" pos="525" show="ff:fe:96:0f:16:ee:c0:00" value="fffe960f16eec000"/>
      <field name="pgsqledb.val.length" showname="Column length: 10" size="4" pos="533" show="10" value="0000000a"/>
      <field name="pgsqledb.val.data" showname="Data: 0001000000000002044c" size="10" pos="537" show="00:01:00:00:00:00:00:02:04:4c" value="0001000000000002044c"/>
      <field name="pgsqledb.val.length" showname="Column length: -1" size="4" pos="547" show="-1" value="ffffffff"/>
      <field name="pgsqledb.val.length" showname="Column length: 10" size="4" pos="551" show="10" value="0000000a"/>
      <field name="pgsqledb.val.data" showname="Data: 00010000000000000014" size="10" pos="555" show="00:01:00:00:00:00:00:00:00:14" value="00010000000000000014"/>
    </field>
  </proto>
  <proto name="pgsqledb" showname="EDB Postgres Advanced Server" size="98" pos="565">
    <field name="pgsqledb.type" showname="Type: Data row" size="1" pos="565" show="Data row" value="44"/>
    <field name="pgsqledb.length" showname="Length: 97" size="4" pos="566" show="97" value="00000061"/>
    <field name="pgsqledb.frontend" showname="Frontend: False" hide="yes" size="0" pos="565" show="False"/>
    <field name="pgsqledb.field.count" showname="Field count: 8" size="2" pos="570" show="8" value="0008">
      <field name="pgsqledb.val.length" showname="Column length: 10" size="4" pos="572" show="10" value="0000000a"/>
      <field name="pgsqledb.val.data" showname="Data: 00010000000000001ede" size="10" pos="576" show="00:01:00:00:00:00:00:00:1e:de" value="00010000000000001ede"/>
      <field name="pgsqledb.val.length" showname="Column length: 4" size="4" pos="586" show="4" value="00000004"/>
      <field name="pgsqledb.val.data" showname="Data: 464f5244" size="4" pos="590" show="46:4f:52:44" value="464f5244"/>
      <field name="pgsqledb.val.length" showname="Column length: 7" size="4" pos="594" show="7" value="00000007"/>
      <field name="pgsqledb.val.data" showname="Data: 414e414c595354" size="7" pos="598" show="41:4e:41:4c:59:53:54" value="414e414c595354"/>
      <field name="pgsqledb.val.length" showname="Column length: 10" size="4" pos="605" show="10" value="0000000a"/>
      <field name="pgsqledb.val.data" showname="Data: 00010000000000001d8e" size="10" pos="609" show="00:01:00:00:00:00:00:00:1d:8e" value="00010000000000001d8e"/>
      <field name="pgsqledb.val.length" showname="Column length: 8" size="4" pos="619" show="8" value="00000008"/>
      <field name="pgsqledb.val.data" showname="Data: fffdf9224dd6e000" size="8" pos="623" show="ff:fd:f9:22:4d:d6:e0:00" value="fffdf9224dd6e000"/>
      <field name="pgsqledb.val.length" showname="Column length: 10" size="4" pos="631" show="10" value="0000000a"/>
      <field name="pgsqledb.val.data" showname="Data: 00010000000000020bb8" size="10" pos="635" show="00:01:00:00:00:00:00:02:0b:b8" value="00010000000000020bb8"/>
      <field name="pgsqledb.val.length" showname="Column length: -1" size="4" pos="645" show="-1" value="ffffffff"/>
      <field name="pgsqledb.val.length" showname="Column length: 10" size="4" pos="649" show="10" value="0000000a"/>
      <field name="pgsqledb.val.data" showname="Data: 00010000000000000014" size="10" pos="653" show="00:01:00:00:00:00:00:00:00:14" value="00010000000000000014"/>
    </field>
  </proto>
  <proto name="pgsqledb" showname="EDB Postgres Advanced Server" size="96" pos="663">
    <field name="pgsqledb.type" showname="Type: Data row" size="1" pos="663" show="Data row" value="44"/>
    <field name="pgsqledb.length" showname="Length: 95" size="4" pos="664" show="95" value="0000005f"/>
    <field name="pgsqledb.frontend" showname="Frontend: False" hide="yes" size="0" pos="663" show="False"/>
    <field name="pgsqledb.field.count" showname="Field count: 8" size="2" pos="668" show="8" value="0008">
      <field name="pgsqledb.val.length" showname="Column length: 10" size="4" pos="670" show="10" value="0000000a"/>
      <field name="pgsqledb.val.data" showname="Data: 00010000000000001cc9" size="10" pos="674" show="00:01:00:00:00:00:00:00:1c:c9" value="00010000000000001cc9"/>
      <field name="pgsqledb.val.length" showname="Column length: 4" size="4" pos="684" show="4" value="00000004"/>
      <field name="pgsqledb.val.data" showname="Data: 4d61726b" size="4" pos="688" show="4d:61:72:6b" value="4d61726b"/>
      <field name="pgsqledb.val.length" showname="Column length: 5" size="4" pos="692" show="5" value="00000005"/>
      <field name="pgsqledb.val.data" showname="Data: 434c45524b" size="5" pos="696" show="43:4c:45:52:4b" value="434c45524b"/>
      <field name="pgsqledb.val.length" showname="Column length: 10" size="4" pos="701" show="10" value="0000000a"/>
      <field name="pgsqledb.val.data" showname="Data: 00010000000000001ede" size="10" pos="705" show="00:01:00:00:00:00:00:00:1e:de" value="00010000000000001ede"/>
      <field name="pgsqledb.val.length" showname="Column length: 8" size="4" pos="715" show="8" value="00000008"/>
      <field name="pgsqledb.val.data" showname="Data: fffddd8d638a4000" size="8" pos="719" show="ff:fd:dd:8d:63:8a:40:00" value="fffddd8d638a4000"/>
      <field name="pgsqledb.val.length" showname="Column length: 10" size="4" pos="727" show="10" value="0000000a"/>
      <field name="pgsqledb.val.data" showname="Data: 00010000000000020320" size="10" pos="731" show="00:01:00:00:00:00:00:02:03:20" value="00010000000000020320"/>
      <field name="pgsqledb.val.length" showname="Column length: -1" size="4" pos="741" show="-1" value="ffffffff"/>
      <field name="pgsqledb.val.length" showname="Column length: 10" size="4" pos="745" show="10" value="0000000a"/>
      <field name="pgsqledb.val.data" showname="Data: 00010000000000000014" size="10" pos="749" show="00:01:00:00:00:00:00:00:00:14" value="00010000000000000014"/>
    </field>
  </proto>
  <proto name="pgsqledb" showname="EDB Postgres Advanced Server" size="14" pos="759">
    <field name="pgsqledb.type" showname="Type: Command completion" size="1" pos="759" show="Command completion" value="43"/>
    <field name="pgsqledb.length" showname="Length: 13" size="4" pos="760" show="13" value="0000000d"/>
    <field name="pgsqledb.frontend" showname="Frontend: False" hide="yes" size="0" pos="759" show="False"/>
    <field name="pgsqledb.tag" showname="Tag: SELECT 5" size="9" pos="764" show="SELECT 5" value="53454c454354203500"/>
  </proto>
  <proto name="pgsqledb" showname="EDB Postgres Advanced Server" size="6" pos="773">
    <field name="pgsqledb.type" showname="Type: Ready for query" size="1" pos="773" show="Ready for query" value="5a"/>
    <field name="pgsqledb.length" showname="Length: 5" size="4" pos="774" show="5" value="00000005"/>
    <field name="pgsqledb.frontend" showname="Frontend: False" hide="yes" size="0" pos="773" show="False"/>
    <field name="pgsqledb.status" showname="Status: Idle (73)" size="1" pos="778" show="73" value="49"/>
  </proto>
</packet>

</pdml>
