<?xml version="1.0" encoding="utf-8"?>
<?xml-stylesheet type="text/xsl" href="pdml2html.xsl"?>
<!-- You can find pdml2html.xsl in C:\Program Files\Wireshark or at https://gitlab.com/wireshark/wireshark/-/tree/master/resources/share/doc/wireshark/pdml2html.xsl. -->
<pdml version="0" creator="wireshark/4.2.4" time="Thu Nov 28 22:07:49 2024" capture_file="C:\Users\XAVIER~1.FIS\AppData\Local\Temp\wireshark_NPF_LoopbackKQFMX2.pcapng">
<packet>
  <proto name="geninfo" pos="0" showname="General information" size="105">
    <field name="num" pos="0" show="194" showname="Number" value="c2" size="105"/>
    <field name="len" pos="0" show="105" showname="Frame Length" value="69" size="105"/>
    <field name="caplen" pos="0" show="105" showname="Captured Length" value="69" size="105"/>
    <field name="timestamp" pos="0" show="Nov 28, 2024 22:07:07.180725000 Romance Standard Time" showname="Captured Time" value="1732828027.180725000" size="105"/>
  </proto>
  <proto name="frame" showname="Frame 194: 105 bytes on wire (840 bits), 105 bytes captured (840 bits) on interface \Device\NPF_Loopback, id 0" size="105" pos="0">
    <field name="frame.section_number" showname="Section number: 1" size="0" pos="0" show="1"/>
    <field name="frame.interface_id" showname="Interface id: 0 (\Device\NPF_Loopback)" size="0" pos="0" show="0">
      <field name="frame.interface_name" showname="Interface name: \Device\NPF_Loopback" size="0" pos="0" show="\Device\NPF_Loopback"/>
    </field>
    <field name="frame.encap_type" showname="Encapsulation type: NULL/Loopback (15)" size="0" pos="0" show="15"/>
    <field name="frame.time" showname="Arrival Time: Nov 28, 2024 22:07:07.180725000 Romance Standard Time" size="0" pos="0" show="Nov 28, 2024 22:07:07.180725000 Romance Standard Time"/>
    <field name="frame.time_utc" showname="UTC Arrival Time: Nov 28, 2024 21:07:07.180725000 UTC" size="0" pos="0" show="Nov 28, 2024 21:07:07.180725000 UTC"/>
    <field name="frame.time_epoch" showname="Epoch Arrival Time: 1732828027.180725000" size="0" pos="0" show="1732828027.180725000"/>
    <field name="frame.offset_shift" showname="Time shift for this packet: 0.000000000 seconds" size="0" pos="0" show="0.000000000"/>
    <field name="frame.time_delta" showname="Time delta from previous captured frame: 0.000307000 seconds" size="0" pos="0" show="0.000307000"/>
    <field name="frame.time_delta_displayed" showname="Time delta from previous displayed frame: 0.000000000 seconds" size="0" pos="0" show="0.000000000"/>
    <field name="frame.time_relative" showname="Time since reference or first frame: 1.592651000 seconds" size="0" pos="0" show="1.592651000"/>
    <field name="frame.number" showname="Frame Number: 194" size="0" pos="0" show="194"/>
    <field name="frame.len" showname="Frame Length: 105 bytes (840 bits)" size="0" pos="0" show="105"/>
    <field name="frame.cap_len" showname="Capture Length: 105 bytes (840 bits)" size="0" pos="0" show="105"/>
    <field name="frame.marked" showname="Frame is marked: False" size="0" pos="0" show="False"/>
    <field name="frame.ignored" showname="Frame is ignored: False" size="0" pos="0" show="False"/>
    <field name="frame.protocols" showname="Protocols in frame: null:ipv6:tcp:pgsqledb" size="0" pos="0" show="null:ipv6:tcp:pgsqledb"/>
    <field name="frame.coloring_rule.name" showname="Coloring Rule Name: TCP" size="0" pos="0" show="TCP"/>
    <field name="frame.coloring_rule.string" showname="Coloring Rule String: tcp" size="0" pos="0" show="tcp"/>
  </proto>
  <proto name="null" showname="Null/Loopback" size="4" pos="0">
    <field name="null.family" showname="Family: IPv6 (24)" size="4" pos="0" show="24" value="18000000"/>
  </proto>
  <proto name="ipv6" showname="Internet Protocol Version 6, Src: ::1, Dst: ::1" size="40" pos="4">
    <field name="ipv6.version" showname="0110 .... = Version: 6" size="1" pos="4" show="6" value="60"/>
    <field name="ip.version" showname="0110 .... = Version: 6 [This field makes the filter match on &quot;ip.version == 6&quot; possible]" hide="yes" size="1" pos="4" show="6" value="6" unmaskedvalue="60"/>
    <field name="ipv6.tclass" showname=".... 0000 0000 .... .... .... .... .... = Traffic Class: 0x00 (DSCP: CS0, ECN: Not-ECT)" size="4" pos="4" show="0x00000000" value="0" unmaskedvalue="600820e3">
      <field name="ipv6.tclass.dscp" showname=".... 0000 00.. .... .... .... .... .... = Differentiated Services Codepoint: Default (0)" size="4" pos="4" show="0" value="0" unmaskedvalue="600820e3"/>
      <field name="ipv6.tclass.ecn" showname=".... .... ..00 .... .... .... .... .... = Explicit Congestion Notification: Not ECN-Capable Transport (0)" size="4" pos="4" show="0" value="0" unmaskedvalue="600820e3"/>
    </field>
    <field name="ipv6.flow" showname=".... 1000 0010 0000 1110 0011 = Flow Label: 0x820e3" size="3" pos="5" show="0x0820e3" value="820E3" unmaskedvalue="0820e3"/>
    <field name="ipv6.plen" showname="Payload Length: 61" size="2" pos="8" show="61" value="003d"/>
    <field name="ipv6.nxt" showname="Next Header: TCP (6)" size="1" pos="10" show="6" value="06"/>
    <field name="ipv6.hlim" showname="Hop Limit: 128" size="1" pos="11" show="128" value="80"/>
    <field name="ipv6.src" showname="Source Address: ::1" size="16" pos="12" show="::1" value="00000000000000000000000000000001"/>
    <field name="ipv6.addr" showname="Source or Destination Address: ::1" hide="yes" size="16" pos="12" show="::1" value="00000000000000000000000000000001"/>
    <field name="ipv6.src_host" showname="Source Host: ::1" hide="yes" size="16" pos="12" show="::1" value="00000000000000000000000000000001"/>
    <field name="ipv6.host" showname="Source or Destination Host: ::1" hide="yes" size="16" pos="12" show="::1" value="00000000000000000000000000000001"/>
    <field name="ipv6.dst" showname="Destination Address: ::1" size="16" pos="28" show="::1" value="00000000000000000000000000000001"/>
    <field name="ipv6.addr" showname="Source or Destination Address: ::1" hide="yes" size="16" pos="28" show="::1" value="00000000000000000000000000000001"/>
    <field name="ipv6.dst_host" showname="Destination Host: ::1" hide="yes" size="16" pos="28" show="::1" value="00000000000000000000000000000001"/>
    <field name="ipv6.host" showname="Source or Destination Host: ::1" hide="yes" size="16" pos="28" show="::1" value="00000000000000000000000000000001"/>
  </proto>
  <proto name="tcp" showname="Transmission Control Protocol, Src Port: 51720, Dst Port: 5446, Seq: 1, Ack: 1, Len: 41" size="20" pos="44">
    <field name="tcp.srcport" showname="Source Port: 51720" size="2" pos="44" show="51720" value="ca08"/>
    <field name="tcp.dstport" showname="Destination Port: 5446" size="2" pos="46" show="5446" value="1546"/>
    <field name="tcp.port" showname="Source or Destination Port: 51720" hide="yes" size="2" pos="44" show="51720" value="ca08"/>
    <field name="tcp.port" showname="Source or Destination Port: 5446" hide="yes" size="2" pos="46" show="5446" value="1546"/>
    <field name="tcp.stream" showname="Stream index: 12" size="0" pos="44" show="12"/>
    <field name="tcp.completeness" showname="Conversation completeness: Incomplete (12)" size="0" pos="44" show="12">
      <field name="tcp.completeness.rst" showname="..0. .... = RST: Absent" size="0" pos="0" show="False"/>
      <field name="tcp.completeness.fin" showname="...0 .... = FIN: Absent" size="0" pos="0" show="False"/>
      <field name="tcp.completeness.data" showname=".... 1... = Data: Present" size="0" pos="0" show="True"/>
      <field name="tcp.completeness.ack" showname=".... .1.. = ACK: Present" size="0" pos="0" show="True"/>
      <field name="tcp.completeness.syn-ack" showname=".... ..0. = SYN-ACK: Absent" size="0" pos="0" show="False"/>
      <field name="tcp.completeness.syn" showname=".... ...0 = SYN: Absent" size="0" pos="0" show="False"/>
      <field name="tcp.completeness.str" showname="Completeness Flags: ··DA··" size="0" pos="44" show="··DA··"/>
    </field>
    <field name="tcp.len" showname="TCP Segment Len: 41" size="0" pos="44" show="41"/>
    <field name="tcp.seq" showname="Sequence Number: 1    (relative sequence number)" size="4" pos="48" show="1" value="48323291"/>
    <field name="tcp.seq_raw" showname="Sequence Number (raw): 1211249297" size="4" pos="48" show="1211249297" value="48323291"/>
    <field name="tcp.nxtseq" showname="Next Sequence Number: 42    (relative sequence number)" size="0" pos="44" show="42"/>
    <field name="tcp.ack" showname="Acknowledgment Number: 1    (relative ack number)" size="4" pos="52" show="1" value="70a420fe"/>
    <field name="tcp.ack_raw" showname="Acknowledgment number (raw): 1889804542" size="4" pos="52" show="1889804542" value="70a420fe"/>
    <field name="tcp.hdr_len" showname="0101 .... = Header Length: 20 bytes (5)" size="1" pos="56" show="20" value="50"/>
    <field name="tcp.flags" showname="Flags: 0x018 (PSH, ACK)" size="2" pos="56" show="0x0018" value="18" unmaskedvalue="5018">
      <field name="tcp.flags.res" showname="000. .... .... = Reserved: Not set" size="1" pos="56" show="False" value="0" unmaskedvalue="50"/>
      <field name="tcp.flags.ae" showname="...0 .... .... = Accurate ECN: Not set" size="1" pos="56" show="False" value="0" unmaskedvalue="50"/>
      <field name="tcp.flags.cwr" showname=".... 0... .... = Congestion Window Reduced: Not set" size="1" pos="57" show="False" value="0" unmaskedvalue="18"/>
      <field name="tcp.flags.ece" showname=".... .0.. .... = ECN-Echo: Not set" size="1" pos="57" show="False" value="0" unmaskedvalue="18"/>
      <field name="tcp.flags.urg" showname=".... ..0. .... = Urgent: Not set" size="1" pos="57" show="False" value="0" unmaskedvalue="18"/>
      <field name="tcp.flags.ack" showname=".... ...1 .... = Acknowledgment: Set" size="1" pos="57" show="True" value="1" unmaskedvalue="18"/>
      <field name="tcp.flags.push" showname=".... .... 1... = Push: Set" size="1" pos="57" show="True" value="1" unmaskedvalue="18"/>
      <field name="tcp.flags.reset" showname=".... .... .0.. = Reset: Not set" size="1" pos="57" show="False" value="0" unmaskedvalue="18"/>
      <field name="tcp.flags.syn" showname=".... .... ..0. = Syn: Not set" size="1" pos="57" show="False" value="0" unmaskedvalue="18"/>
      <field name="tcp.flags.fin" showname=".... .... ...0 = Fin: Not set" size="1" pos="57" show="False" value="0" unmaskedvalue="18"/>
      <field name="tcp.flags.str" showname="TCP Flags: ·······AP···" size="2" pos="56" show="·······AP···" value="5018"/>
    </field>
    <field name="tcp.window_size_value" showname="Window: 249" size="2" pos="58" show="249" value="00f9"/>
    <field name="tcp.window_size" showname="Calculated window size: 249" size="2" pos="58" show="249" value="00f9"/>
    <field name="tcp.window_size_scalefactor" showname="Window size scaling factor: -1 (unknown)" size="2" pos="58" show="-1" value="00f9"/>
    <field name="tcp.checksum" showname="Checksum: 0x89c6 [unverified]" size="2" pos="60" show="0x89c6" value="89c6"/>
    <field name="tcp.checksum.status" showname="Checksum Status: Unverified" size="0" pos="60" show="2"/>
    <field name="tcp.urgent_pointer" showname="Urgent Pointer: 0" size="2" pos="62" show="0" value="0000"/>
    <field name="" show="Timestamps" size="0" pos="44">
      <field name="tcp.time_relative" showname="Time since first frame in this TCP stream: 0.000000000 seconds" size="0" pos="44" show="0.000000000"/>
      <field name="tcp.time_delta" showname="Time since previous frame in this TCP stream: 0.000000000 seconds" size="0" pos="44" show="0.000000000"/>
    </field>
    <field name="tcp.analysis" showname="SEQ/ACK analysis" size="0" pos="44" show="" value="">
      <field name="tcp.analysis.bytes_in_flight" showname="Bytes in flight: 41" size="0" pos="44" show="41"/>
      <field name="tcp.analysis.push_bytes_sent" showname="Bytes sent since last PSH flag: 41" size="0" pos="44" show="41"/>
    </field>
    <field name="tcp.payload" showname="TCP payload (41 bytes)" size="41" pos="64" show="51:00:00:00:28:53:45:4c:45:43:54:20:2a:20:46:52:4f:4d:20:65:6d:70:20:57:48:45:52:45:20:64:65:70:74:6e:6f:20:3d:20:32:30:00" value="510000002853454c454354202a2046524f4d20656d7020574845524520646570746e6f203d20323000"/>
    <field name="tcp.pdu.size" showname="PDU Size: 41" size="41" pos="64" show="41" value="510000002853454c454354202a2046524f4d20656d7020574845524520646570746e6f203d20323000"/>
  </proto>
  <proto name="pgsqledb" showname="EDB Postgres Advanced Server" size="41" pos="64">
    <field name="pgsqledb.type" showname="Type: Simple query" size="1" pos="64" show="Simple query" value="51"/>
    <field name="pgsqledb.length" showname="Length: 40" size="4" pos="65" show="40" value="00000028"/>
    <field name="pgsqledb.frontend" showname="Frontend: True" hide="yes" size="0" pos="64" show="True"/>
    <field name="pgsqledb.query" showname="Query: SELECT * FROM emp WHERE deptno = 20" size="36" pos="69" show="SELECT * FROM emp WHERE deptno = 20" value="53454c454354202a2046524f4d20656d7020574845524520646570746e6f203d20323000"/>
  </proto>
</packet>

<packet>
  <proto name="geninfo" pos="0" showname="General information" size="709">
    <field name="num" pos="0" show="202" showname="Number" value="ca" size="709"/>
    <field name="len" pos="0" show="709" showname="Frame Length" value="2c5" size="709"/>
    <field name="caplen" pos="0" show="709" showname="Captured Length" value="2c5" size="709"/>
    <field name="timestamp" pos="0" show="Nov 28, 2024 22:07:07.190115000 Romance Standard Time" showname="Captured Time" value="1732828027.190115000" size="709"/>
  </proto>
  <proto name="frame" showname="Frame 202: 709 bytes on wire (5672 bits), 709 bytes captured (5672 bits) on interface \Device\NPF_Loopback, id 0" size="709" pos="0">
    <field name="frame.section_number" showname="Section number: 1" size="0" pos="0" show="1"/>
    <field name="frame.interface_id" showname="Interface id: 0 (\Device\NPF_Loopback)" size="0" pos="0" show="0">
      <field name="frame.interface_name" showname="Interface name: \Device\NPF_Loopback" size="0" pos="0" show="\Device\NPF_Loopback"/>
    </field>
    <field name="frame.encap_type" showname="Encapsulation type: NULL/Loopback (15)" size="0" pos="0" show="15"/>
    <field name="frame.time" showname="Arrival Time: Nov 28, 2024 22:07:07.190115000 Romance Standard Time" size="0" pos="0" show="Nov 28, 2024 22:07:07.190115000 Romance Standard Time"/>
    <field name="frame.time_utc" showname="UTC Arrival Time: Nov 28, 2024 21:07:07.190115000 UTC" size="0" pos="0" show="Nov 28, 2024 21:07:07.190115000 UTC"/>
    <field name="frame.time_epoch" showname="Epoch Arrival Time: 1732828027.190115000" size="0" pos="0" show="1732828027.190115000"/>
    <field name="frame.offset_shift" showname="Time shift for this packet: 0.000000000 seconds" size="0" pos="0" show="0.000000000"/>
    <field name="frame.time_delta" showname="Time delta from previous captured frame: 0.007870000 seconds" size="0" pos="0" show="0.007870000"/>
    <field name="frame.time_delta_displayed" showname="Time delta from previous displayed frame: 0.009390000 seconds" size="0" pos="0" show="0.009390000"/>
    <field name="frame.time_relative" showname="Time since reference or first frame: 1.602041000 seconds" size="0" pos="0" show="1.602041000"/>
    <field name="frame.number" showname="Frame Number: 202" size="0" pos="0" show="202"/>
    <field name="frame.len" showname="Frame Length: 709 bytes (5672 bits)" size="0" pos="0" show="709"/>
    <field name="frame.cap_len" showname="Capture Length: 709 bytes (5672 bits)" size="0" pos="0" show="709"/>
    <field name="frame.marked" showname="Frame is marked: False" size="0" pos="0" show="False"/>
    <field name="frame.ignored" showname="Frame is ignored: False" size="0" pos="0" show="False"/>
    <field name="frame.protocols" showname="Protocols in frame: null:ipv6:tcp:pgsqledb" size="0" pos="0" show="null:ipv6:tcp:pgsqledb"/>
    <field name="frame.coloring_rule.name" showname="Coloring Rule Name: TCP" size="0" pos="0" show="TCP"/>
    <field name="frame.coloring_rule.string" showname="Coloring Rule String: tcp" size="0" pos="0" show="tcp"/>
  </proto>
  <proto name="null" showname="Null/Loopback" size="4" pos="0">
    <field name="null.family" showname="Family: IPv6 (24)" size="4" pos="0" show="24" value="18000000"/>
  </proto>
  <proto name="ipv6" showname="Internet Protocol Version 6, Src: ::1, Dst: ::1" size="40" pos="4">
    <field name="ipv6.version" showname="0110 .... = Version: 6" size="1" pos="4" show="6" value="60"/>
    <field name="ip.version" showname="0110 .... = Version: 6 [This field makes the filter match on &quot;ip.version == 6&quot; possible]" hide="yes" size="1" pos="4" show="6" value="6" unmaskedvalue="60"/>
    <field name="ipv6.tclass" showname=".... 0000 0000 .... .... .... .... .... = Traffic Class: 0x00 (DSCP: CS0, ECN: Not-ECT)" size="4" pos="4" show="0x00000000" value="0" unmaskedvalue="6008400e">
      <field name="ipv6.tclass.dscp" showname=".... 0000 00.. .... .... .... .... .... = Differentiated Services Codepoint: Default (0)" size="4" pos="4" show="0" value="0" unmaskedvalue="6008400e"/>
      <field name="ipv6.tclass.ecn" showname=".... .... ..00 .... .... .... .... .... = Explicit Congestion Notification: Not ECN-Capable Transport (0)" size="4" pos="4" show="0" value="0" unmaskedvalue="6008400e"/>
    </field>
    <field name="ipv6.flow" showname=".... 1000 0100 0000 0000 1110 = Flow Label: 0x8400e" size="3" pos="5" show="0x08400e" value="8400E" unmaskedvalue="08400e"/>
    <field name="ipv6.plen" showname="Payload Length: 665" size="2" pos="8" show="665" value="0299"/>
    <field name="ipv6.nxt" showname="Next Header: TCP (6)" size="1" pos="10" show="6" value="06"/>
    <field name="ipv6.hlim" showname="Hop Limit: 128" size="1" pos="11" show="128" value="80"/>
    <field name="ipv6.src" showname="Source Address: ::1" size="16" pos="12" show="::1" value="00000000000000000000000000000001"/>
    <field name="ipv6.addr" showname="Source or Destination Address: ::1" hide="yes" size="16" pos="12" show="::1" value="00000000000000000000000000000001"/>
    <field name="ipv6.src_host" showname="Source Host: ::1" hide="yes" size="16" pos="12" show="::1" value="00000000000000000000000000000001"/>
    <field name="ipv6.host" showname="Source or Destination Host: ::1" hide="yes" size="16" pos="12" show="::1" value="00000000000000000000000000000001"/>
    <field name="ipv6.dst" showname="Destination Address: ::1" size="16" pos="28" show="::1" value="00000000000000000000000000000001"/>
    <field name="ipv6.addr" showname="Source or Destination Address: ::1" hide="yes" size="16" pos="28" show="::1" value="00000000000000000000000000000001"/>
    <field name="ipv6.dst_host" showname="Destination Host: ::1" hide="yes" size="16" pos="28" show="::1" value="00000000000000000000000000000001"/>
    <field name="ipv6.host" showname="Source or Destination Host: ::1" hide="yes" size="16" pos="28" show="::1" value="00000000000000000000000000000001"/>
  </proto>
  <proto name="tcp" showname="Transmission Control Protocol, Src Port: 5446, Dst Port: 51720, Seq: 1, Ack: 42, Len: 645" size="20" pos="44">
    <field name="tcp.srcport" showname="Source Port: 5446" size="2" pos="44" show="5446" value="1546"/>
    <field name="tcp.dstport" showname="Destination Port: 51720" size="2" pos="46" show="51720" value="ca08"/>
    <field name="tcp.port" showname="Source or Destination Port: 5446" hide="yes" size="2" pos="44" show="5446" value="1546"/>
    <field name="tcp.port" showname="Source or Destination Port: 51720" hide="yes" size="2" pos="46" show="51720" value="ca08"/>
    <field name="tcp.stream" showname="Stream index: 12" size="0" pos="44" show="12"/>
    <field name="tcp.completeness" showname="Conversation completeness: Incomplete (12)" size="0" pos="44" show="12">
      <field name="tcp.completeness.rst" showname="..0. .... = RST: Absent" size="0" pos="0" show="False"/>
      <field name="tcp.completeness.fin" showname="...0 .... = FIN: Absent" size="0" pos="0" show="False"/>
      <field name="tcp.completeness.data" showname=".... 1... = Data: Present" size="0" pos="0" show="True"/>
      <field name="tcp.completeness.ack" showname=".... .1.. = ACK: Present" size="0" pos="0" show="True"/>
      <field name="tcp.completeness.syn-ack" showname=".... ..0. = SYN-ACK: Absent" size="0" pos="0" show="False"/>
      <field name="tcp.completeness.syn" showname=".... ...0 = SYN: Absent" size="0" pos="0" show="False"/>
      <field name="tcp.completeness.str" showname="Completeness Flags: ··DA··" size="0" pos="44" show="··DA··"/>
    </field>
    <field name="tcp.len" showname="TCP Segment Len: 645" size="0" pos="44" show="645"/>
    <field name="tcp.seq" showname="Sequence Number: 1    (relative sequence number)" size="4" pos="48" show="1" value="70a420fe"/>
    <field name="tcp.seq_raw" showname="Sequence Number (raw): 1889804542" size="4" pos="48" show="1889804542" value="70a420fe"/>
    <field name="tcp.nxtseq" showname="Next Sequence Number: 646    (relative sequence number)" size="0" pos="44" show="646"/>
    <field name="tcp.ack" showname="Acknowledgment Number: 42    (relative ack number)" size="4" pos="52" show="42" value="483232ba"/>
    <field name="tcp.ack_raw" showname="Acknowledgment number (raw): 1211249338" size="4" pos="52" show="1211249338" value="483232ba"/>
    <field name="tcp.hdr_len" showname="0101 .... = Header Length: 20 bytes (5)" size="1" pos="56" show="20" value="50"/>
    <field name="tcp.flags" showname="Flags: 0x018 (PSH, ACK)" size="2" pos="56" show="0x0018" value="18" unmaskedvalue="5018">
      <field name="tcp.flags.res" showname="000. .... .... = Reserved: Not set" size="1" pos="56" show="False" value="0" unmaskedvalue="50"/>
      <field name="tcp.flags.ae" showname="...0 .... .... = Accurate ECN: Not set" size="1" pos="56" show="False" value="0" unmaskedvalue="50"/>
      <field name="tcp.flags.cwr" showname=".... 0... .... = Congestion Window Reduced: Not set" size="1" pos="57" show="False" value="0" unmaskedvalue="18"/>
      <field name="tcp.flags.ece" showname=".... .0.. .... = ECN-Echo: Not set" size="1" pos="57" show="False" value="0" unmaskedvalue="18"/>
      <field name="tcp.flags.urg" showname=".... ..0. .... = Urgent: Not set" size="1" pos="57" show="False" value="0" unmaskedvalue="18"/>
      <field name="tcp.flags.ack" showname=".... ...1 .... = Acknowledgment: Set" size="1" pos="57" show="True" value="1" unmaskedvalue="18"/>
      <field name="tcp.flags.push" showname=".... .... 1... = Push: Set" size="1" pos="57" show="True" value="1" unmaskedvalue="18"/>
      <field name="tcp.flags.reset" showname=".... .... .0.. = Reset: Not set" size="1" pos="57" show="False" value="0" unmaskedvalue="18"/>
      <field name="tcp.flags.syn" showname=".... .... ..0. = Syn: Not set" size="1" pos="57" show="False" value="0" unmaskedvalue="18"/>
      <field name="tcp.flags.fin" showname=".... .... ...0 = Fin: Not set" size="1" pos="57" show="False" value="0" unmaskedvalue="18"/>
      <field name="tcp.flags.str" showname="TCP Flags: ·······AP···" size="2" pos="56" show="·······AP···" value="5018"/>
    </field>
    <field name="tcp.window_size_value" showname="Window: 248" size="2" pos="58" show="248" value="00f8"/>
    <field name="tcp.window_size" showname="Calculated window size: 248" size="2" pos="58" show="248" value="00f8"/>
    <field name="tcp.window_size_scalefactor" showname="Window size scaling factor: -1 (unknown)" size="2" pos="58" show="-1" value="00f8"/>
    <field name="tcp.checksum" showname="Checksum: 0x6b9f [unverified]" size="2" pos="60" show="0x6b9f" value="6b9f"/>
    <field name="tcp.checksum.status" showname="Checksum Status: Unverified" size="0" pos="60" show="2"/>
    <field name="tcp.urgent_pointer" showname="Urgent Pointer: 0" size="2" pos="62" show="0" value="0000"/>
    <field name="" show="Timestamps" size="0" pos="44">
      <field name="tcp.time_relative" showname="Time since first frame in this TCP stream: 0.009390000 seconds" size="0" pos="44" show="0.009390000"/>
      <field name="tcp.time_delta" showname="Time since previous frame in this TCP stream: 0.009323000 seconds" size="0" pos="44" show="0.009323000"/>
    </field>
    <field name="tcp.analysis" showname="SEQ/ACK analysis" size="0" pos="44" show="" value="">
      <field name="tcp.analysis.bytes_in_flight" showname="Bytes in flight: 645" size="0" pos="44" show="645"/>
      <field name="tcp.analysis.push_bytes_sent" showname="Bytes sent since last PSH flag: 645" size="0" pos="44" show="645"/>
    </field>
    <field name="tcp.payload" showname="TCP payload (645 bytes)" size="645" pos="64" show="54:00:00:00:c3:00:08:65:6d:70:6e:6f:00:00:1f:84:6a:00:01:00:00:06:a4:ff:ff:00:04:00:04:00:00:65:6e:61:6d:65:00:00:1f:84:6a:00:02:00:00:04:13:ff:ff:00:00:00:0e:00:00:6a:6f:62:00:00:1f:84:6a:00:03:00:00:04:13:ff:ff:00:00:00:0d:00:00:6d:67:72:00:00:1f:84:6a:00:04:00:00:06:a4:ff:ff:00:04:00:04:00:00:68:69:72:65:64:61:74:65:00:00:1f:84:6a:00:05:00:00:04:5a:00:08:ff:ff:ff:ff:00:00:73:61:6c:00:00:1f:84:6a:00:06:00:00:06:a4:ff:ff:00:07:00:06:00:00:63:6f:6d:6d:00:00:1f:84:6a:00:07:00:00:06:a4:ff:ff:00:07:00:06:00:00:64:65:70:74:6e:6f:00:00:1f:84:6a:00:08:00:00:06:a4:ff:ff:00:02:00:04:00:00:44:00:00:00:56:00:08:00:00:00:04:37:35:36:36:00:00:00:05:4a:4f:4e:45:53:00:00:00:07:4d:41:4e:41:47:45:52:00:00:00:04:37:38:33:39:00:00:00:13:31:39:38:31:2d:30:34:2d:30:32:20:30:30:3a:30:30:3a:30:30:00:00:00:07:32:39:37:35:2e:30:30:ff:ff:ff:ff:00:00:00:02:32:30:44:00:00:00:54:00:08:00:00:00:04:37:38:37:36:00:00:00:05:41:44:41:4d:53:00:00:00:05:43:4c:45:52:4b:00:00:00:04:37:37:38:38:00:00:00:13:31:39:38:37:2d:30:35:2d:32:33:20:30:30:3a:30:30:3a:30:30:00:00:00:07:31:31:30:30:2e:30:30:ff:ff:ff:ff:00:00:00:02:32:30:44:00:00:00:55:00:08:00:00:00:04:37:39:30:32:00:00:00:04:46:4f:52:44:00:00:00:07:41:4e:41:4c:59:53:54:00:00:00:04:37:35:36:36:00:00:00:13:31:39:38:31:2d:31:32:2d:30:33:20:30:30:3a:30:30:3a:30:30:00:00:00:07:33:30:30:30:2e:30:30:ff:ff:ff:ff:00:00:00:02:32:30:44:00:00:00:56:00:08:00:00:00:04:37:37:38:38:00:00:00:05:53:43:4f:54:54:00:00:00:07:41:4e:41:4c:59:53:54:00:00:00:04:37:35:36:36:00:00:00:13:31:39:38:37:2d:30:34:2d:31:39:20:30:30:3a:30:30:3a:30:30:00:00:00:07:33:30:30:30:2e:30:30:ff:ff:ff:ff:00:00:00:02:32:30:44:00:00:00:53:00:08:00:00:00:04:37:33:36:39:00:00:00:05:53:4d:49:54:48:00:00:00:05:43:4c:45:52:4b:00:00:00:04:37:39:30:32:00:00:00:13:31:39:38:30:2d:31:32:2d:31:37:20:30:30:3a:30:30:3a:30:30:00:00:00:06:38:30:30:2e:30:30:ff:ff:ff:ff:00:00:00:02:32:30:43:00:00:00:0d:53:45:4c:45:43:54:20:35:00:5a:00:00:00:05:49" value="54000000c30008656d706e6f00001f846a0001000006a4ffff000400040000656e616d6500001f846a000200000413ffff0000000e00006a6f6200001f846a000300000413ffff0000000d00006d677200001f846a0004000006a4ffff000400040000686972656461746500001f846a00050000045a0008ffffffff000073616c00001f846a0006000006a4ffff000700060000636f6d6d00001f846a0007000006a4ffff000700060000646570746e6f00001f846a0008000006a4ffff000200040000440000005600080000000437353636000000054a4f4e4553000000074d414e41474552000000043738333900000013313938312d30342d30322030303a30303a303000000007323937352e3030ffffffff000000023230440000005400080000000437383736000000054144414d5300000005434c45524b000000043737383800000013313938372d30352d32332030303a30303a303000000007313130302e3030ffffffff00000002323044000000550008000000043739303200000004464f524400000007414e414c595354000000043735363600000013313938312d31322d30332030303a30303a303000000007333030302e3030ffffffff0000000232304400000056000800000004373738380000000553434f545400000007414e414c595354000000043735363600000013313938372d30342d31392030303a30303a303000000007333030302e3030ffffffff00000002323044000000530008000000043733363900000005534d49544800000005434c45524b000000043739303200000013313938302d31322d31372030303a30303a3030000000063830302e3030ffffffff000000023230430000000d53454c4543542035005a0000000549"/>
    <field name="tcp.pdu.size" showname="PDU Size: 196" size="196" pos="64" show="196" value="54000000c30008656d706e6f00001f846a0001000006a4ffff000400040000656e616d6500001f846a000200000413ffff0000000e00006a6f6200001f846a000300000413ffff0000000d00006d677200001f846a0004000006a4ffff000400040000686972656461746500001f846a00050000045a0008ffffffff000073616c00001f846a0006000006a4ffff000700060000636f6d6d00001f846a0007000006a4ffff000700060000646570746e6f00001f846a0008000006a4ffff000200040000"/>
    <field name="tcp.pdu.size" showname="PDU Size: 87" size="87" pos="260" show="87" value="440000005600080000000437353636000000054a4f4e4553000000074d414e41474552000000043738333900000013313938312d30342d30322030303a30303a303000000007323937352e3030ffffffff000000023230"/>
    <field name="tcp.pdu.size" showname="PDU Size: 85" size="85" pos="347" show="85" value="440000005400080000000437383736000000054144414d5300000005434c45524b000000043737383800000013313938372d30352d32332030303a30303a303000000007313130302e3030ffffffff000000023230"/>
    <field name="tcp.pdu.size" showname="PDU Size: 86" size="86" pos="432" show="86" value="44000000550008000000043739303200000004464f524400000007414e414c595354000000043735363600000013313938312d31322d30332030303a30303a303000000007333030302e3030ffffffff000000023230"/>
    <field name="tcp.pdu.size" showname="PDU Size: 87" size="87" pos="518" show="87" value="4400000056000800000004373738380000000553434f545400000007414e414c595354000000043735363600000013313938372d30342d31392030303a30303a303000000007333030302e3030ffffffff000000023230"/>
    <field name="tcp.pdu.size" showname="PDU Size: 84" size="84" pos="605" show="84" value="44000000530008000000043733363900000005534d49544800000005434c45524b000000043739303200000013313938302d31322d31372030303a30303a3030000000063830302e3030ffffffff000000023230"/>
    <field name="tcp.pdu.size" showname="PDU Size: 14" size="14" pos="689" show="14" value="430000000d53454c454354203500"/>
    <field name="tcp.pdu.size" showname="PDU Size: 6" size="6" pos="703" show="6" value="5a0000000549"/>
  </proto>
  <proto name="pgsqledb" showname="EDB Postgres Advanced Server" size="196" pos="64">
    <field name="pgsqledb.type" showname="Type: Row description" size="1" pos="64" show="Row description" value="54"/>
    <field name="pgsqledb.length" showname="Length: 195" size="4" pos="65" show="195" value="000000c3"/>
    <field name="pgsqledb.frontend" showname="Frontend: False" hide="yes" size="0" pos="64" show="False"/>
    <field name="pgsqledb.field.count" showname="Field count: 8" size="2" pos="69" show="8" value="0008">
      <field name="pgsqledb.col.name" showname="Column name: empno" size="6" pos="71" show="empno" value="656d706e6f00">
        <field name="pgsqledb.oid.table" showname="Table OID: 2065514" size="4" pos="77" show="2065514" value="001f846a"/>
        <field name="pgsqledb.col.index" showname="Column index: 1" size="2" pos="81" show="1" value="0001"/>
        <field name="pgsqledb.oid.type" showname="Type OID: 1700" size="4" pos="83" show="1700" value="000006a4"/>
        <field name="pgsqledb.val.length" showname="Column length: -1" size="2" pos="87" show="-1" value="ffff"/>
        <field name="pgsqledb.col.typemod" showname="Type modifier: 262148" size="4" pos="89" show="262148" value="00040004"/>
        <field name="pgsqledb.format" showname="Format: Text (0)" size="2" pos="93" show="0" value="0000"/>
      </field>
      <field name="pgsqledb.col.name" showname="Column name: ename" size="6" pos="95" show="ename" value="656e616d6500">
        <field name="pgsqledb.oid.table" showname="Table OID: 2065514" size="4" pos="101" show="2065514" value="001f846a"/>
        <field name="pgsqledb.col.index" showname="Column index: 2" size="2" pos="105" show="2" value="0002"/>
        <field name="pgsqledb.oid.type" showname="Type OID: 1043" size="4" pos="107" show="1043" value="00000413"/>
        <field name="pgsqledb.val.length" showname="Column length: -1" size="2" pos="111" show="-1" value="ffff"/>
        <field name="pgsqledb.col.typemod" showname="Type modifier: 14" size="4" pos="113" show="14" value="0000000e"/>
        <field name="pgsqledb.format" showname="Format: Text (0)" size="2" pos="117" show="0" value="0000"/>
      </field>
      <field name="pgsqledb.col.name" showname="Column name: job" size="4" pos="119" show="job" value="6a6f6200">
        <field name="pgsqledb.oid.table" showname="Table OID: 2065514" size="4" pos="123" show="2065514" value="001f846a"/>
        <field name="pgsqledb.col.index" showname="Column index: 3" size="2" pos="127" show="3" value="0003"/>
        <field name="pgsqledb.oid.type" showname="Type OID: 1043" size="4" pos="129" show="1043" value="00000413"/>
        <field name="pgsqledb.val.length" showname="Column length: -1" size="2" pos="133" show="-1" value="ffff"/>
        <field name="pgsqledb.col.typemod" showname="Type modifier: 13" size="4" pos="135" show="13" value="0000000d"/>
        <field name="pgsqledb.format" showname="Format: Text (0)" size="2" pos="139" show="0" value="0000"/>
      </field>
      <field name="pgsqledb.col.name" showname="Column name: mgr" size="4" pos="141" show="mgr" value="6d677200">
        <field name="pgsqledb.oid.table" showname="Table OID: 2065514" size="4" pos="145" show="2065514" value="001f846a"/>
        <field name="pgsqledb.col.index" showname="Column index: 4" size="2" pos="149" show="4" value="0004"/>
        <field name="pgsqledb.oid.type" showname="Type OID: 1700" size="4" pos="151" show="1700" value="000006a4"/>
        <field name="pgsqledb.val.length" showname="Column length: -1" size="2" pos="155" show="-1" value="ffff"/>
        <field name="pgsqledb.col.typemod" showname="Type modifier: 262148" size="4" pos="157" show="262148" value="00040004"/>
        <field name="pgsqledb.format" showname="Format: Text (0)" size="2" pos="161" show="0" value="0000"/>
      </field>
      <field name="pgsqledb.col.name" showname="Column name: hiredate" size="9" pos="163" show="hiredate" value="686972656461746500">
        <field name="pgsqledb.oid.table" showname="Table OID: 2065514" size="4" pos="172" show="2065514" value="001f846a"/>
        <field name="pgsqledb.col.index" showname="Column index: 5" size="2" pos="176" show="5" value="0005"/>
        <field name="pgsqledb.oid.type" showname="Type OID: 1114" size="4" pos="178" show="1114" value="0000045a"/>
        <field name="pgsqledb.val.length" showname="Column length: 8" size="2" pos="182" show="8" value="0008"/>
        <field name="pgsqledb.col.typemod" showname="Type modifier: -1" size="4" pos="184" show="-1" value="ffffffff"/>
        <field name="pgsqledb.format" showname="Format: Text (0)" size="2" pos="188" show="0" value="0000"/>
      </field>
      <field name="pgsqledb.col.name" showname="Column name: sal" size="4" pos="190" show="sal" value="73616c00">
        <field name="pgsqledb.oid.table" showname="Table OID: 2065514" size="4" pos="194" show="2065514" value="001f846a"/>
        <field name="pgsqledb.col.index" showname="Column index: 6" size="2" pos="198" show="6" value="0006"/>
        <field name="pgsqledb.oid.type" showname="Type OID: 1700" size="4" pos="200" show="1700" value="000006a4"/>
        <field name="pgsqledb.val.length" showname="Column length: -1" size="2" pos="204" show="-1" value="ffff"/>
        <field name="pgsqledb.col.typemod" showname="Type modifier: 458758" size="4" pos="206" show="458758" value="00070006"/>
        <field name="pgsqledb.format" showname="Format: Text (0)" size="2" pos="210" show="0" value="0000"/>
      </field>
      <field name="pgsqledb.col.name" showname="Column name: comm" size="5" pos="212" show="comm" value="636f6d6d00">
        <field name="pgsqledb.oid.table" showname="Table OID: 2065514" size="4" pos="217" show="2065514" value="001f846a"/>
        <field name="pgsqledb.col.index" showname="Column index: 7" size="2" pos="221" show="7" value="0007"/>
        <field name="pgsqledb.oid.type" showname="Type OID: 1700" size="4" pos="223" show="1700" value="000006a4"/>
        <field name="pgsqledb.val.length" showname="Column length: -1" size="2" pos="227" show="-1" value="ffff"/>
        <field name="pgsqledb.col.typemod" showname="Type modifier: 458758" size="4" pos="229" show="458758" value="00070006"/>
        <field name="pgsqledb.format" showname="Format: Text (0)" size="2" pos="233" show="0" value="0000"/>
      </field>
      <field name="pgsqledb.col.name" showname="Column name: deptno" size="7" pos="235" show="deptno" value="646570746e6f00">
        <field name="pgsqledb.oid.table" showname="Table OID: 2065514" size="4" pos="242" show="2065514" value="001f846a"/>
        <field name="pgsqledb.col.index" showname="Column index: 8" size="2" pos="246" show="8" value="0008"/>
        <field name="pgsqledb.oid.type" showname="Type OID: 1700" size="4" pos="248" show="1700" value="000006a4"/>
        <field name="pgsqledb.val.length" showname="Column length: -1" size="2" pos="252" show="-1" value="ffff"/>
        <field name="pgsqledb.col.typemod" showname="Type modifier: 131076" size="4" pos="254" show="131076" value="00020004"/>
        <field name="pgsqledb.format" showname="Format: Text (0)" size="2" pos="258" show="0" value="0000"/>
      </field>
    </field>
  </proto>
  <proto name="pgsqledb" showname="EDB Postgres Advanced Server" size="87" pos="260">
    <field name="pgsqledb.type" showname="Type: Data row" size="1" pos="260" show="Data row" value="44"/>
    <field name="pgsqledb.length" showname="Length: 86" size="4" pos="261" show="86" value="00000056"/>
    <field name="pgsqledb.frontend" showname="Frontend: False" hide="yes" size="0" pos="260" show="False"/>
    <field name="pgsqledb.field.count" showname="Field count: 8" size="2" pos="265" show="8" value="0008">
      <field name="pgsqledb.val.length" showname="Column length: 4" size="4" pos="267" show="4" value="00000004"/>
      <field name="pgsqledb.val.data" showname="Data: 37353636" size="4" pos="271" show="37:35:36:36" value="37353636"/>
      <field name="pgsqledb.val.length" showname="Column length: 5" size="4" pos="275" show="5" value="00000005"/>
      <field name="pgsqledb.val.data" showname="Data: 4a4f4e4553" size="5" pos="279" show="4a:4f:4e:45:53" value="4a4f4e4553"/>
      <field name="pgsqledb.val.length" showname="Column length: 7" size="4" pos="284" show="7" value="00000007"/>
      <field name="pgsqledb.val.data" showname="Data: 4d414e41474552" size="7" pos="288" show="4d:41:4e:41:47:45:52" value="4d414e41474552"/>
      <field name="pgsqledb.val.length" showname="Column length: 4" size="4" pos="295" show="4" value="00000004"/>
      <field name="pgsqledb.val.data" showname="Data: 37383339" size="4" pos="299" show="37:38:33:39" value="37383339"/>
      <field name="pgsqledb.val.length" showname="Column length: 19" size="4" pos="303" show="19" value="00000013"/>
      <field name="pgsqledb.val.data" showname="Data: 313938312d30342d30322030303a30303a3030" size="19" pos="307" show="31:39:38:31:2d:30:34:2d:30:32:20:30:30:3a:30:30:3a:30:30" value="313938312d30342d30322030303a30303a3030"/>
      <field name="pgsqledb.val.length" showname="Column length: 7" size="4" pos="326" show="7" value="00000007"/>
      <field name="pgsqledb.val.data" showname="Data: 323937352e3030" size="7" pos="330" show="32:39:37:35:2e:30:30" value="323937352e3030"/>
      <field name="pgsqledb.val.length" showname="Column length: -1" size="4" pos="337" show="-1" value="ffffffff"/>
      <field name="pgsqledb.val.length" showname="Column length: 2" size="4" pos="341" show="2" value="00000002"/>
      <field name="pgsqledb.val.data" showname="Data: 3230" size="2" pos="345" show="32:30" value="3230"/>
    </field>
  </proto>
  <proto name="pgsqledb" showname="EDB Postgres Advanced Server" size="85" pos="347">
    <field name="pgsqledb.type" showname="Type: Data row" size="1" pos="347" show="Data row" value="44"/>
    <field name="pgsqledb.length" showname="Length: 84" size="4" pos="348" show="84" value="00000054"/>
    <field name="pgsqledb.frontend" showname="Frontend: False" hide="yes" size="0" pos="347" show="False"/>
    <field name="pgsqledb.field.count" showname="Field count: 8" size="2" pos="352" show="8" value="0008">
      <field name="pgsqledb.val.length" showname="Column length: 4" size="4" pos="354" show="4" value="00000004"/>
      <field name="pgsqledb.val.data" showname="Data: 37383736" size="4" pos="358" show="37:38:37:36" value="37383736"/>
      <field name="pgsqledb.val.length" showname="Column length: 5" size="4" pos="362" show="5" value="00000005"/>
      <field name="pgsqledb.val.data" showname="Data: 4144414d53" size="5" pos="366" show="41:44:41:4d:53" value="4144414d53"/>
      <field name="pgsqledb.val.length" showname="Column length: 5" size="4" pos="371" show="5" value="00000005"/>
      <field name="pgsqledb.val.data" showname="Data: 434c45524b" size="5" pos="375" show="43:4c:45:52:4b" value="434c45524b"/>
      <field name="pgsqledb.val.length" showname="Column length: 4" size="4" pos="380" show="4" value="00000004"/>
      <field name="pgsqledb.val.data" showname="Data: 37373838" size="4" pos="384" show="37:37:38:38" value="37373838"/>
      <field name="pgsqledb.val.length" showname="Column length: 19" size="4" pos="388" show="19" value="00000013"/>
      <field name="pgsqledb.val.data" showname="Data: 313938372d30352d32332030303a30303a3030" size="19" pos="392" show="31:39:38:37:2d:30:35:2d:32:33:20:30:30:3a:30:30:3a:30:30" value="313938372d30352d32332030303a30303a3030"/>
      <field name="pgsqledb.val.length" showname="Column length: 7" size="4" pos="411" show="7" value="00000007"/>
      <field name="pgsqledb.val.data" showname="Data: 313130302e3030" size="7" pos="415" show="31:31:30:30:2e:30:30" value="313130302e3030"/>
      <field name="pgsqledb.val.length" showname="Column length: -1" size="4" pos="422" show="-1" value="ffffffff"/>
      <field name="pgsqledb.val.length" showname="Column length: 2" size="4" pos="426" show="2" value="00000002"/>
      <field name="pgsqledb.val.data" showname="Data: 3230" size="2" pos="430" show="32:30" value="3230"/>
    </field>
  </proto>
  <proto name="pgsqledb" showname="EDB Postgres Advanced Server" size="86" pos="432">
    <field name="pgsqledb.type" showname="Type: Data row" size="1" pos="432" show="Data row" value="44"/>
    <field name="pgsqledb.length" showname="Length: 85" size="4" pos="433" show="85" value="00000055"/>
    <field name="pgsqledb.frontend" showname="Frontend: False" hide="yes" size="0" pos="432" show="False"/>
    <field name="pgsqledb.field.count" showname="Field count: 8" size="2" pos="437" show="8" value="0008">
      <field name="pgsqledb.val.length" showname="Column length: 4" size="4" pos="439" show="4" value="00000004"/>
      <field name="pgsqledb.val.data" showname="Data: 37393032" size="4" pos="443" show="37:39:30:32" value="37393032"/>
      <field name="pgsqledb.val.length" showname="Column length: 4" size="4" pos="447" show="4" value="00000004"/>
      <field name="pgsqledb.val.data" showname="Data: 464f5244" size="4" pos="451" show="46:4f:52:44" value="464f5244"/>
      <field name="pgsqledb.val.length" showname="Column length: 7" size="4" pos="455" show="7" value="00000007"/>
      <field name="pgsqledb.val.data" showname="Data: 414e414c595354" size="7" pos="459" show="41:4e:41:4c:59:53:54" value="414e414c595354"/>
      <field name="pgsqledb.val.length" showname="Column length: 4" size="4" pos="466" show="4" value="00000004"/>
      <field name="pgsqledb.val.data" showname="Data: 37353636" size="4" pos="470" show="37:35:36:36" value="37353636"/>
      <field name="pgsqledb.val.length" showname="Column length: 19" size="4" pos="474" show="19" value="00000013"/>
      <field name="pgsqledb.val.data" showname="Data: 313938312d31322d30332030303a30303a3030" size="19" pos="478" show="31:39:38:31:2d:31:32:2d:30:33:20:30:30:3a:30:30:3a:30:30" value="313938312d31322d30332030303a30303a3030"/>
      <field name="pgsqledb.val.length" showname="Column length: 7" size="4" pos="497" show="7" value="00000007"/>
      <field name="pgsqledb.val.data" showname="Data: 333030302e3030" size="7" pos="501" show="33:30:30:30:2e:30:30" value="333030302e3030"/>
      <field name="pgsqledb.val.length" showname="Column length: -1" size="4" pos="508" show="-1" value="ffffffff"/>
      <field name="pgsqledb.val.length" showname="Column length: 2" size="4" pos="512" show="2" value="00000002"/>
      <field name="pgsqledb.val.data" showname="Data: 3230" size="2" pos="516" show="32:30" value="3230"/>
    </field>
  </proto>
  <proto name="pgsqledb" showname="EDB Postgres Advanced Server" size="87" pos="518">
    <field name="pgsqledb.type" showname="Type: Data row" size="1" pos="518" show="Data row" value="44"/>
    <field name="pgsqledb.length" showname="Length: 86" size="4" pos="519" show="86" value="00000056"/>
    <field name="pgsqledb.frontend" showname="Frontend: False" hide="yes" size="0" pos="518" show="False"/>
    <field name="pgsqledb.field.count" showname="Field count: 8" size="2" pos="523" show="8" value="0008">
      <field name="pgsqledb.val.length" showname="Column length: 4" size="4" pos="525" show="4" value="00000004"/>
      <field name="pgsqledb.val.data" showname="Data: 37373838" size="4" pos="529" show="37:37:38:38" value="37373838"/>
      <field name="pgsqledb.val.length" showname="Column length: 5" size="4" pos="533" show="5" value="00000005"/>
      <field name="pgsqledb.val.data" showname="Data: 53434f5454" size="5" pos="537" show="53:43:4f:54:54" value="53434f5454"/>
      <field name="pgsqledb.val.length" showname="Column length: 7" size="4" pos="542" show="7" value="00000007"/>
      <field name="pgsqledb.val.data" showname="Data: 414e414c595354" size="7" pos="546" show="41:4e:41:4c:59:53:54" value="414e414c595354"/>
      <field name="pgsqledb.val.length" showname="Column length: 4" size="4" pos="553" show="4" value="00000004"/>
      <field name="pgsqledb.val.data" showname="Data: 37353636" size="4" pos="557" show="37:35:36:36" value="37353636"/>
      <field name="pgsqledb.val.length" showname="Column length: 19" size="4" pos="561" show="19" value="00000013"/>
      <field name="pgsqledb.val.data" showname="Data: 313938372d30342d31392030303a30303a3030" size="19" pos="565" show="31:39:38:37:2d:30:34:2d:31:39:20:30:30:3a:30:30:3a:30:30" value="313938372d30342d31392030303a30303a3030"/>
      <field name="pgsqledb.val.length" showname="Column length: 7" size="4" pos="584" show="7" value="00000007"/>
      <field name="pgsqledb.val.data" showname="Data: 333030302e3030" size="7" pos="588" show="33:30:30:30:2e:30:30" value="333030302e3030"/>
      <field name="pgsqledb.val.length" showname="Column length: -1" size="4" pos="595" show="-1" value="ffffffff"/>
      <field name="pgsqledb.val.length" showname="Column length: 2" size="4" pos="599" show="2" value="00000002"/>
      <field name="pgsqledb.val.data" showname="Data: 3230" size="2" pos="603" show="32:30" value="3230"/>
    </field>
  </proto>
  <proto name="pgsqledb" showname="EDB Postgres Advanced Server" size="84" pos="605">
    <field name="pgsqledb.type" showname="Type: Data row" size="1" pos="605" show="Data row" value="44"/>
    <field name="pgsqledb.length" showname="Length: 83" size="4" pos="606" show="83" value="00000053"/>
    <field name="pgsqledb.frontend" showname="Frontend: False" hide="yes" size="0" pos="605" show="False"/>
    <field name="pgsqledb.field.count" showname="Field count: 8" size="2" pos="610" show="8" value="0008">
      <field name="pgsqledb.val.length" showname="Column length: 4" size="4" pos="612" show="4" value="00000004"/>
      <field name="pgsqledb.val.data" showname="Data: 37333639" size="4" pos="616" show="37:33:36:39" value="37333639"/>
      <field name="pgsqledb.val.length" showname="Column length: 5" size="4" pos="620" show="5" value="00000005"/>
      <field name="pgsqledb.val.data" showname="Data: 534d495448" size="5" pos="624" show="53:4d:49:54:48" value="534d495448"/>
      <field name="pgsqledb.val.length" showname="Column length: 5" size="4" pos="629" show="5" value="00000005"/>
      <field name="pgsqledb.val.data" showname="Data: 434c45524b" size="5" pos="633" show="43:4c:45:52:4b" value="434c45524b"/>
      <field name="pgsqledb.val.length" showname="Column length: 4" size="4" pos="638" show="4" value="00000004"/>
      <field name="pgsqledb.val.data" showname="Data: 37393032" size="4" pos="642" show="37:39:30:32" value="37393032"/>
      <field name="pgsqledb.val.length" showname="Column length: 19" size="4" pos="646" show="19" value="00000013"/>
      <field name="pgsqledb.val.data" showname="Data: 313938302d31322d31372030303a30303a3030" size="19" pos="650" show="31:39:38:30:2d:31:32:2d:31:37:20:30:30:3a:30:30:3a:30:30" value="313938302d31322d31372030303a30303a3030"/>
      <field name="pgsqledb.val.length" showname="Column length: 6" size="4" pos="669" show="6" value="00000006"/>
      <field name="pgsqledb.val.data" showname="Data: 3830302e3030" size="6" pos="673" show="38:30:30:2e:30:30" value="3830302e3030"/>
      <field name="pgsqledb.val.length" showname="Column length: -1" size="4" pos="679" show="-1" value="ffffffff"/>
      <field name="pgsqledb.val.length" showname="Column length: 2" size="4" pos="683" show="2" value="00000002"/>
      <field name="pgsqledb.val.data" showname="Data: 3230" size="2" pos="687" show="32:30" value="3230"/>
    </field>
  </proto>
  <proto name="pgsqledb" showname="EDB Postgres Advanced Server" size="14" pos="689">
    <field name="pgsqledb.type" showname="Type: Command completion" size="1" pos="689" show="Command completion" value="43"/>
    <field name="pgsqledb.length" showname="Length: 13" size="4" pos="690" show="13" value="0000000d"/>
    <field name="pgsqledb.frontend" showname="Frontend: False" hide="yes" size="0" pos="689" show="False"/>
    <field name="pgsqledb.tag" showname="Tag: SELECT 5" size="9" pos="694" show="SELECT 5" value="53454c454354203500"/>
  </proto>
  <proto name="pgsqledb" showname="EDB Postgres Advanced Server" size="6" pos="703">
    <field name="pgsqledb.type" showname="Type: Ready for query" size="1" pos="703" show="Ready for query" value="5a"/>
    <field name="pgsqledb.length" showname="Length: 5" size="4" pos="704" show="5" value="00000005"/>
    <field name="pgsqledb.frontend" showname="Frontend: False" hide="yes" size="0" pos="703" show="False"/>
    <field name="pgsqledb.status" showname="Status: Idle (73)" size="1" pos="708" show="73" value="49"/>
  </proto>
</packet>

</pdml>
